ccopy_reg
_reconstructor
p0
(cnltk.classify.maxent
MaxentClassifier
p1
c__builtin__
object
p2
Ntp3
Rp4
(dp5
S'_logarithmic'
p6
I01
sS'_encoding'
p7
g0
(cnltk.classify.maxent
GISEncoding
p8
g2
Ntp9
Rp10
(dp11
S'_labels'
p12
(lp13
Vopen
p14
aVmove
p15
aVflip
p16
aVturn
p17
aVlift
p18
aVflip on
p19
aVclose
p20
aVspin
p21
asS'_C'
p22
I12
sS'_mapping'
p23
(dp24
(S'RotAngle'
p25
F475.4943
Vspin
p26
tp27
I321
s(S'TranslocDir'
p28
(F0.0
F0.2315049
F0.0
tp29
Vmove
p30
tp31
I34
s(S'RotAngle'
p32
F54.57996
Vturn
p33
tp34
I201
s(S'RotSpeed'
p35
F1.739825
Vspin
p36
tp37
I392
s(S'TranslocDir'
p38
(F0.0
F0.6824667
F0.0
tp39
Vlift
p40
tp41
I264
s(S'TranslocDir'
p42
(F0.0
F0.1906028
F0.0
tp43
Vlift
p44
tp45
I314
s(S'MotionManner'
p46
S'put(apple,on(plate))'
p47
Vmove
p48
tp49
I112
s(S'RelOffset'
p50
(F-0.1703617
F0.1004961
F-0.4135511
tp51
Vmove
p52
tp53
I61
s(S'RotSpeed'
p54
F8.043883
Vspin
p55
tp56
I373
s(S'TranslocSpeed'
p57
F2.018482
Vlift
p58
tp59
I241
s(S'SymmetryAxis'
p60
S'Z'
p61
Vflip
p62
tp63
I408
s(S'TranslocDir'
p64
(F0.703891
F0.000191927
F-0.8785043
tp65
Vmove
p66
tp67
I120
s(S'TranslocDir'
p68
(F0.2456479
F-0.2478776
F0.474156
tp69
Vopen
p70
tp71
I15
s(S'TranslocDir'
p72
(F0.0
F0.7373235
F0.0
tp73
Vlift
p74
tp75
I312
s(S'MotionManner'
p76
S'roll(grape)'
p77
Vspin
p78
tp79
I363
s(S'TranslocSpeed'
p80
F2.655969
Vmove
p81
tp82
I142
s(S'RotSpeed'
p83
F4.909875
Vmove
p84
tp85
I85
s(S'MotionSpeed'
p86
F0.1339239
Vopen
p87
tp88
I26
s(S'RotAngle'
p89
F177.0017
Vturn
p90
tp91
I223
s(S'TranslocSpeed'
p92
F2.684366
Vmove
p93
tp94
I135
s(S'MotionSpeed'
p95
F1.083121
g70
tp96
I16
s(S'RotDir'
p97
I1
g26
tp98
I323
s(S'TranslocSpeed'
p99
F1.154915
Vmove
p100
tp101
I68
s(S'MotionManner'
p102
S'spin(cup)'
p103
Vturn
p104
tp105
I176
s(S'MotionSpeed'
p106
F4.037564
Vopen
p107
tp108
I29
s(S'RotAxis'
p109
S'X'
p110
Vspin
p111
tp112
I386
s(S'RotAngle'
p113
F-313.8578
Vspin
p114
tp115
I380
s(S'TranslocSpeed'
p116
F2.853587
Vlift
p117
tp118
I301
s(S'MotionManner'
p119
S'roll(plate)'
p120
Vturn
p121
tp122
I168
s(S'RotSpeed'
p123
F11.56345
Vturn
p124
tp125
I229
s(S'MotionManner'
p126
S'flip(block3,edge(block3))'
p127
g17
tp128
I153
s(S'MotionManner'
p129
S'turn(front_cover)'
p130
g20
tp131
I0
s(S'RotAngle'
p132
F86.48315
g104
tp133
I175
s(S'RotAngle'
p134
F130.1714
Vturn
p135
tp136
I221
s(S'RotAngle'
p137
F-356.0343
Vspin
p138
tp139
I370
s(S'RotSpeed'
p140
F1.716118
Vspin
p141
tp142
I377
s(S'TranslocSpeed'
p143
F3.874317
Vmove
p144
tp145
I139
s(S'TranslocDir'
p146
(F0.0
F0.4188087
F-2.980232e-08
tp147
Vlift
p148
tp149
I306
s(S'MotionManner'
p150
S'flip(plate,edge(plate))'
p151
Vmove
p152
tp153
I48
s(S'RotAngle'
p154
F34.74147
Vturn
p155
tp156
I165
s(S'TranslocDir'
p157
(F-0.3933919
F0.0
F0.9564747
tp158
Vspin
p159
tp160
I359
s(S'MotionManner'
p161
S'flip(ball,center(ball))'
p162
Vmove
p163
tp164
I40
s(S'PlacementOrder'
p165
S'ball,blackboard'
p166
Vmove
p167
tp168
I89
s(S'MotionSpeed'
p169
F3.070723
Vclose
p170
tp171
I14
s(S'TranslocSpeed'
p172
F1.465531
Vlift
p173
tp174
I243
s(S'TranslocSpeed'
p175
F0.6532902
Vmove
p176
tp177
I51
s(S'RotAxis'
p178
S'Y'
p179
g26
tp180
I324
s(S'TranslocDir'
p181
(F0.0
F0.6804185
F0.0
tp182
Vlift
p183
tp184
I300
s(S'RotSpeed'
p185
F1.464742
Vturn
p186
tp187
I185
s(S'TranslocSpeed'
p188
F3.869181
Vlift
p189
tp190
I259
s(S'TranslocDir'
p191
(F-1.490116e-08
F0.9586782
F-2.328306e-10
tp192
Vlift
p193
tp194
I272
s(S'RotSpeed'
p195
F0.47324
Vturn
p196
tp197
I194
s(S'MotionManner'
p198
S'roll(block3)'
p199
g21
tp200
I319
s(S'TranslocDir'
p201
(F0.01696574
F0.0
F-0.8589599
tp202
Vspin
p203
tp204
I345
s(S'MotionManner'
p205
S'flip(bottle,edge(bottle))'
p206
Vturn
p207
tp208
I197
s(S'RotSpeed'
p209
F3.401162
Vmove
p210
tp211
I115
s(S'TranslocSpeed'
p212
F3.458633
g15
tp213
I30
s(S'RotAngle'
p214
F79.82825
Vmove
p215
tp216
I122
s(S'RotAngle'
p217
F41.1444
Vmove
p218
tp219
I82
s(S'MotionManner'
p220
S'spin(ball)'
p221
Vmove
p222
tp223
I36
s(S'RotSpeed'
p224
F9.01031
Vmove
p225
tp226
I105
s(S'TranslocSpeed'
p227
F3.457394
Vmove
p228
tp229
I42
s(S'RotSpeed'
p230
F11.25723
Vspin
p231
tp232
I341
s(S'MotionManner'
p233
S'lean(grape,on(block3))'
p234
Vturn
p235
tp236
I207
s(S'MotionSpeed'
p237
F2.208191
Vopen
p238
tp239
I7
s(S'MotionManner'
p240
S'move(cork)'
p241
Vopen
p242
tp243
I21
s(S'RotSpeed'
p244
F8.678174
Vspin
p245
tp246
I343
s(S'RotSpeed'
p247
F3.42393
g90
tp248
I224
s(S'MotionSpeed'
p249
F7.429715
g14
tp250
I4
s(S'TranslocDir'
p251
(F0.0
F1.143364
F0.0
tp252
Vlift
p253
tp254
I256
s(S'RotAngle'
p255
F180.0
Vmove
p256
tp257
I97
s(S'MotionManner'
p258
S'put(disc,on(cup))'
p259
Vclose
p260
tp261
I9
s(S'RotAngle'
p262
F-255.8531
Vspin
p263
tp264
I349
s(S'MotionManner'
p265
S'turn(bowl)'
p266
g215
tp267
I123
s(S'MotionManner'
p268
S'lean(ball,against(disc))'
p269
g155
tp270
I166
s(S'RotSpeed'
p271
F9.800671
g138
tp272
I371
s(S'TranslocSpeed'
p273
F2.692408
Vlift
p274
tp275
I283
s(S'RotAngle'
p276
F148.0438
Vturn
p277
tp278
I181
s(S'RotAxis'
p279
S'Z'
p280
Vflip
p281
tp282
I405
s(S'MotionManner'
p283
S'move(disc)'
p284
Vopen
p285
tp286
I11
s(S'RotSpeed'
p287
F4.993581
Vspin
p288
tp289
I337
s(S'MotionManner'
p290
S'lean(disc,on(grape))'
p291
g100
tp292
I69
s(S'MotionManner'
p293
S'lean(blackboard,on(pencil))'
p294
g218
tp295
I80
s(S'MotionManner'
p296
S'roll(bowl)'
p297
Vspin
p298
tp299
I378
s(S'TranslocDir'
p300
(F0.3245949
F0.0
F0.8478341
tp301
Vspin
p302
tp303
I396
s(S'RotSpeed'
p304
F9.366237
g26
tp305
I322
s(S'RotSpeed'
p306
F1.787689
Vturn
p307
tp308
I174
s(S'RotAngle'
p309
F526.9747
Vspin
p310
tp311
I374
s(S'TranslocDir'
p312
(F0.0
F0.5016611
F0.0
tp313
Vlift
p314
tp315
I282
s(S'MotionManner'
p316
S'stack(bowl,cup)'
p317
Vmove
p318
tp319
I126
s(S'TranslocSpeed'
p320
F4.881417
g40
tp321
I263
s(S'TranslocSpeed'
p322
F0.8024031
g30
tp323
I32
s(S'SymmetryAxis'
p324
S'X'
p325
Vflip
p326
tp327
I406
s(S'TranslocSpeed'
p328
F1.34657
g148
tp329
I305
s(S'SymmetryAxis'
p330
S'X'
p331
g163
tp332
I41
s(S'RotAngle'
p333
F161.8341
Vturn
p334
tp335
I159
s(S'MotionManner'
p336
S'flip(banana,center(banana))'
p337
Vmove
p338
tp339
I116
s(S'TranslocSpeed'
p340
F3.339347
Vlift
p341
tp342
I253
s(S'TranslocSpeed'
p343
F3.885224
Vlift
p344
tp345
I277
s(S'SymmetryAxis'
p346
S'Y'
p347
g152
tp348
I50
s(S'TranslocSpeed'
p349
F4.263702
Vlift
p350
tp351
I295
s(S'RotAngle'
p352
F377.2106
Vspin
p353
tp354
I327
s(S'RotSpeed'
p355
F6.24387
Vturn
p356
tp357
I234
s(S'TranslocDir'
p358
(F-1.170362
F9.608269e-05
F-0.6635511
tp359
g52
tp360
I60
s(S'MotionManner'
p361
S'lean(blackboard,on(bottle))'
p362
g84
tp363
I84
s(S'RotSpeed'
p364
F6.446218
Vturn
p365
tp366
I226
s(S'MotionManner'
p367
S'lean(knife,against(cup))'
p368
g93
tp369
I136
s(S'RotAngle'
p370
F51.96568
g14
tp371
I2
s(S'TranslocDir'
p372
(F0.1681427
F2.384186e-07
F0.5118222
tp373
Vmove
p374
tp375
I73
s(S'RotSpeed'
p376
F11.37559
Vturn
p377
tp378
I231
s(S'MotionManner'
p379
S'spin(book)'
p380
Vmove
p381
tp382
I77
s(S'TranslocDir'
p383
(F0.0
F0.9362621
F0.0
tp384
g189
tp385
I260
s(S'MotionManner'
p386
S'flip(cup,edge(cup))'
p387
Vturn
p388
tp389
I171
s(S'TranslocSpeed'
p390
F4.369549
g314
tp391
I281
s(S'PlacementOrder'
p392
S'cup,bowl'
p393
g318
tp394
I127
s(S'MotionManner'
p395
S'turn(grape)'
p396
g225
tp397
I104
s(S'MotionManner'
p398
S'roll(cup)'
p399
Vspin
p400
tp401
I338
s(S'MotionManner'
p402
S'roll(pencil)'
p403
Vspin
p404
tp405
I389
s(S'TranslocDir'
p406
(F0.0
F0.4718959
F0.0
tp407
g117
tp408
I302
s(S'TranslocDir'
p409
(F1.405521
F-0.6458685
F-0.6969199
tp410
g107
tp411
I28
s(S'TranslocDir'
p412
(F0.0
F0.8821914
F0.0
tp413
g274
tp414
I284
s(S'RotDir'
p415
I1
Vturn
p416
tp417
I158
s(S'TranslocSpeed'
p418
F2.440411
g44
tp419
I313
s(S'TranslocSpeed'
p420
F2.340133
Vlift
p421
tp422
I293
s(S'TranslocSpeed'
p423
F0.6242365
Vmove
p424
tp425
I150
s(S'MotionManner'
p426
S'roll(bottle)'
p427
g159
tp428
I358
s(S'RotSpeed'
p429
F4.632955
Vturn
p430
tp431
I162
s(S'TranslocDir'
p432
(F0.0
F0.5803504
F0.0
tp433
Vlift
p434
tp435
I252
s(S'RotSpeed'
p436
F11.30936
g222
tp437
I39
s(S'RotAngle'
p438
F-533.3856
Vspin
p439
tp440
I382
s(S'TranslocSpeed'
p441
F4.01893
Vlift
p442
tp443
I317
s(S'MotionManner'
p444
S'put(grape,near(apple))'
p445
Vmove
p446
tp447
I99
s(S'TranslocDir'
p448
(F0.0
F0.7774734
F0.0
tp449
Vlift
p450
tp451
I268
s(S'RotAngle'
p452
F101.4173
Vturn
p453
tp454
I217
s(S'TranslocSpeed'
p455
F2.103319
g84
tp456
I83
s(S'RotSpeed'
p457
F6.101655
g176
tp458
I54
s(S'TranslocSpeed'
p459
F3.454099
Vmove
p460
tp461
I128
s(S'MotionManner'
p462
S'roll(pencil)'
p463
Vmove
p464
tp465
I145
s(S'MotionManner'
p466
S'roll(paper_sheet)'
p467
g302
tp468
I395
s(S'RotSpeed'
p469
F2.214497
Vspin
p470
tp471
I362
s(S'RotAngle'
p472
F25.24083
Vmove
p473
tp474
I65
s(S'MotionManner'
p475
S'spin(disc)'
p476
g473
tp477
I66
s(S'MotionManner'
p478
S'put(bowl,near(cup))'
p479
g66
tp480
I119
s(S'TranslocSpeed'
p481
F3.25881
Vlift
p482
tp483
I315
s(S'RotAxis'
p484
S'X'
p485
g16
tp486
I404
s(S'TranslocSpeed'
p487
F4.177973
Vlift
p488
tp489
I287
s(S'RotAxis'
p490
S'Z'
p491
g263
tp492
I351
s(S'MotionManner'
p493
S'roll(apple)'
p494
Vmove
p495
tp496
I109
s(S'TranslocDir'
p497
(F0.0
F0.4945719
F0.0
tp498
Vlift
p499
tp500
I292
s(S'SymmetryAxis'
p501
S'Y'
p502
g388
tp503
I172
s(S'TranslocDir'
p504
(F-0.035294
F0.0001692772
F-0.7652456
tp505
Vmove
p506
tp507
I92
s(S'TranslocDir'
p508
(F2.384186e-07
F0.3840067
F2.980232e-08
tp509
Vlift
p510
tp511
I304
s(S'RotSpeed'
p512
F3.1356
g215
tp513
I124
s(S'TranslocDir'
p514
(F0.0
F0.3125811
F0.0
tp515
g173
tp516
I244
s(S'TranslocDir'
p517
(F-0.2410117
F0.0
F-0.5227658
tp518
Vspin
p519
tp520
I330
s(S'RotSpeed'
p521
F0.1742154
Vspin
p522
tp523
I332
s(S'MotionManner'
p524
S'spin(blackboard)'
p525
Vturn
p526
tp527
I190
s(S'RotAngle'
p528
F83.99393
g307
tp529
I173
s(S'RotSpeed'
p530
F8.646122
g439
tp531
I383
s(S'TranslocSpeed'
p532
F3.473155
Vlift
p533
tp534
I297
s(S'RotAngle'
p535
F90.0
g176
tp536
I55
s(S'RotSpeed'
p537
F5.352028
g218
tp538
I81
s(S'SymmetryAxis'
p539
S'Z'
p540
g17
tp541
I155
s(S'RotSpeed'
p542
F11.53642
g104
tp543
I178
s(S'RotSpeed'
p544
F11.14164
g135
tp545
I222
s(S'RotAngle'
p546
F177.1022
g430
tp547
I161
s(S'TranslocDir'
p548
(F0.0
F0.8144827
F0.0
tp549
Vlift
p550
tp551
I270
s(S'RotSpeed'
p552
F4.377734
g100
tp553
I70
s(S'MotionSpeed'
p554
F0.5272764
g242
tp555
I23
s(S'TranslocDir'
p556
(F1.299091
F-0.6457663
F-1.200944
tp557
g242
tp558
I22
s(S'PlacementOrder'
p559
S'knife,pencil'
p560
Vmove
p561
tp562
I134
s(S'TranslocDir'
p563
(F0.433338
F8.106232e-05
F-0.1310182
tp564
g446
tp565
I100
s(S'MotionManner'
p566
S'lean(knife,on(cup))'
p567
g460
tp568
I129
s(S'RotAngle'
p569
F459.6351
Vspin
p570
tp571
I354
s(S'RotAngle'
p572
F-232.603
Vspin
p573
tp574
I356
s(S'RotSpeed'
p575
F7.054039
g570
tp576
I355
s(S'RotSpeed'
p577
F6.294958
g310
tp578
I375
s(S'RotAxis'
p579
S'Y'
p580
g326
tp581
I407
s(S'TranslocDir'
p582
(F5.960464e-08
F0.9027908
F2.980232e-08
tp583
g344
tp584
I278
s(S'RotSpeed'
p585
F10.58038
g416
tp586
I157
s(S'TranslocDir'
p587
(F0.0
F0.1626775
F-2.980232e-08
tp588
Vlift
p589
tp590
I308
s(S'RotAngle'
p591
F-305.9446
Vspin
p592
tp593
I346
s(S'RotAngle'
p594
F99.31501
g356
tp595
I233
s(S'TranslocSpeed'
p596
F0.82304
g318
tp597
I125
s(S'TranslocDir'
p598
(F0.0
F0.9953394
F0.0
tp599
Vlift
p600
tp601
I280
s(S'TranslocDir'
p602
(F-0.4367229
F0.0
F0.5959383
tp603
Vspin
p604
tp605
I367
s(S'RotAngle'
p606
F458.4987
g288
tp607
I336
s(S'RotSpeed'
p608
F6.107067
g111
tp609
I385
s(S'TranslocSpeed'
p610
F0.8326483
g450
tp611
I267
s(S'TranslocDir'
p612
(F-0.6656906
F0.0
F-0.8248188
tp613
g464
tp614
I146
s(S'RotSpeed'
p615
F1.09645
Vspin
p616
tp617
I326
s(S'TranslocDir'
p618
(F0.0
F0.2389672
F0.0
tp619
Vlift
p620
tp621
I310
s(S'TranslocDir'
p622
(F0.04749555
F0.0
F-0.4238628
tp623
Vspin
p624
tp625
I369
s(S'RotAngle'
p626
F141.5763
g225
tp627
I103
s(S'MotionManner'
p628
S'roll(ball)'
p629
Vturn
p630
tp631
I163
s(S'TranslocSpeed'
p632
F0.3100747
g374
tp633
I71
s(S'RotAngle'
p634
F132.2681
g84
tp635
I86
s(S'MotionManner'
p636
S'roll(disc)'
p637
g203
tp638
I344
s(S'SymmetryAxis'
p639
S'X'
p640
g19
tp641
I397
s(S'RotSpeed'
p642
F11.37481
g526
tp643
I192
s(S'RotSpeed'
p644
F0.4352629
g235
tp645
I208
s(S'RotAngle'
p646
F-275.4545
Vspin
p647
tp648
I365
s(S'PlacementOrder'
p649
S'paper_sheet,bowl'
p650
g424
tp651
I152
s(S'RotAngle'
p652
F517.8762
g36
tp653
I391
s(S'SymmetryAxis'
p654
S'Y'
p655
Vflip on
p656
tp657
I399
s(S'MotionManner'
p658
S'put(block3,on(pencil))'
p659
g15
tp660
I31
s(S'RotSpeed'
p661
F3.87532
Vspin
p662
tp663
I394
s(S'RotSpeed'
p664
F8.00965
Vmove
p665
tp666
I149
s(S'MotionManner'
p667
S'turn(banana)'
p668
g210
tp669
I114
s(S'RotSpeed'
p670
F8.240101
Vturn
p671
tp672
I188
s(S'RotAngle'
p673
F72.23972
g665
tp674
I147
s(S'RotSpeed'
p675
F3.530889
Vspin
p676
tp677
I388
s(S'MotionManner'
p678
S'flip(pencil,center(pencil))'
p679
Vturn
p680
tp681
I232
s(S'TranslocSpeed'
p682
F0.3956813
g253
tp683
I255
s(S'TranslocDir'
p684
(F0.0
F0.321532
F0.0
tp685
g18
tp686
I240
s(S'MotionManner'
p687
S'turn(front_cover)'
p688
g14
tp689
I3
s(S'MotionManner'
p690
S'lift(block3)'
p691
g30
tp692
I33
s(S'RotAngle'
p693
F26.93816
Vturn
p694
tp695
I212
s(S'MotionManner'
p696
S'put(cork,on(bottle))'
p697
Vclose
p698
tp699
I19
s(S'TranslocSpeed'
p700
F3.073483
g620
tp701
I309
s(S'MotionManner'
p702
S'lift(cup)'
p703
Vmove
p704
tp705
I63
s(S'RotSpeed'
p706
F11.67634
g353
tp707
I328
s(S'MotionManner'
p708
S'spin(banana)'
p709
g694
tp710
I213
s(S'RotAngle'
p711
F127.8877
Vturn
p712
tp713
I199
s(S'TranslocDir'
p714
(F0.0
F0.079427
F0.0
tp715
g350
tp716
I296
s(S'RotAngle'
p717
F14.96508
g222
tp718
I35
s(S'MotionManner'
p719
S'flip(grape,center(grape))'
p720
Vmove
p721
tp722
I102
s(S'RotAngle'
p723
F29.2304
g124
tp724
I227
s(S'MotionManner'
p725
S'lean(blackboard,on(disc))'
p726
g671
tp727
I187
s(S'TranslocSpeed'
p728
F0.1985139
Vmove
p729
tp730
I56
s(S'MotionManner'
p731
S'put(cup,near(cork))'
p732
g52
tp733
I59
s(S'RotAngle'
p734
F246.573
g141
tp735
I376
s(S'RotSpeed'
p736
F8.233168
g93
tp737
I137
s(S'MotionSpeed'
p738
F1.202949
Vclose
p739
tp740
I24
s(S'RotSpeed'
p741
F10.31045
g381
tp742
I78
s(S'RotAxis'
p743
S'Y'
p744
Vflip on
p745
tp746
I402
s(S'MotionManner'
p747
S'put(cup,on(pencil))'
p748
g729
tp749
I57
s(S'TranslocDir'
p750
(F0.03421471
F0.0
F-0.5164917
tp751
Vturn
p752
tp753
I170
s(S'RotSpeed'
p754
F10.24815
Vturn
p755
tp756
I196
s(S'RotAngle'
p757
F118.2695
Vturn
p758
tp759
I210
s(S'RotAxis'
p760
S'Z'
p761
g19
tp762
I398
s(S'TranslocDir'
p763
(F0.0
F0.8539486
F0.0
tp764
g341
tp765
I254
s(S'TranslocDir'
p766
(F0.6628905
F0.0
F0.3793117
tp767
Vspin
p768
tp769
I348
s(S'TranslocDir'
p770
(F0.0
F1.18816
F0.0
tp771
Vlift
p772
tp773
I276
s(S'RotAngle'
p774
F113.2507
Vturn
p775
tp776
I179
s(S'RotSpeed'
p777
F10.21198
Vspin
p778
tp779
I353
s(S'TranslocSpeed'
p780
F1.001014
Vlift
p781
tp782
I273
s(S'SymmetryAxis'
p783
S'X'
p784
Vturn
p785
tp786
I216
s(S'MotionSpeed'
p787
F4.055794
Vclose
p788
tp789
I5
s(S'RotAngle'
p790
F56.65679
g381
tp791
I76
s(S'TranslocDir'
p792
(F0.0
F1.574505
F0.0
tp793
g781
tp794
I274
s(S'TranslocSpeed'
p795
F3.073225
g434
tp796
I251
s(S'RotSpeed'
p797
F2.762628
g775
tp798
I180
s(S'RotAngle'
p799
F126.9441
g377
tp800
I230
s(S'TranslocSpeed'
p801
F0.6113404
Vlift
p802
tp803
I247
s(S'MotionManner'
p804
S'spin(paper_sheet)'
p805
g665
tp806
I148
s(S'TranslocDir'
p807
(F0.0
F0.7986002
F0.0
tp808
g81
tp809
I144
s(S'MotionManner'
p810
S'flip(banana,center(banana))'
p811
g785
tp812
I215
s(S'TranslocSpeed'
p813
F2.527062
g74
tp814
I311
s(S'TranslocSpeed'
p815
F4.614017
Vlift
p816
tp817
I285
s(S'TranslocDir'
p818
(F0.0
F0.7130713
F0.0
tp819
Vlift
p820
tp821
I266
s(S'RotSpeed'
p822
F9.421745
g473
tp823
I67
s(S'MotionManner'
p824
S'flip(paper_sheet,center(paper_sheet))'
p825
Vturn
p826
tp827
I235
s(S'RotSpeed'
p828
F7.500051
g758
tp829
I211
s(S'TranslocDir'
p830
(F0.3404832
F0.0
F-0.2169268
tp831
g404
tp832
I390
s(S'RotAxis'
p833
S'X'
p834
g152
tp835
I49
s(S'MotionManner'
p836
S'put(bottle,near(cork))'
p837
g506
tp838
I91
s(S'TranslocDir'
p839
(F0.0
F0.7400949
F0.0
tp840
g704
tp841
I64
s(S'TranslocSpeed'
p842
F4.388855
g48
tp843
I111
s(S'RotAngle'
p844
F60.71206
g460
tp845
I131
s(S'TranslocDir'
p846
(F0.1732439
F0.0
F0.5994176
tp847
g495
tp848
I110
s(S'RelOffset'
p849
(F-1.066662
F-0.06591892
F-0.6310182
tp850
g446
tp851
I101
s(S'TranslocDir'
p852
(F0.0
F0.4153385
F0.0
tp853
g58
tp854
I242
s(S'TranslocSpeed'
p855
F2.25689
g589
tp856
I307
s(S'MotionSpeed'
p857
F0.3162676
Vclose
p858
tp859
I27
s(S'MotionManner'
p860
S'slide(book)'
p861
g374
tp862
I72
s(S'RotAngle'
p863
F18.1932
g196
tp864
I193
s(S'RotAngle'
p865
F-500.9829
g245
tp866
I342
s(S'MotionManner'
p867
S'flip(book,center(book))'
p868
Vmove
p869
tp870
I74
s(S'RotSpeed'
p871
F4.4922
g256
tp872
I96
s(S'TranslocSpeed'
p873
F3.538277
g550
tp874
I269
s(S'TranslocDir'
p875
(F0.4266845
F-0.2479575
F-0.3680093
tp876
g285
tp877
I12
s(S'MotionManner'
p878
S'roll(apple)'
p879
g624
tp880
I368
s(S'RotAngle'
p881
F120.6013
g755
tp882
I195
s(S'TranslocSpeed'
p883
F2.597387
g66
tp884
I118
s(S'TranslocDir'
p885
(F0.0
F0.589474
F0.0
tp886
Vmove
p887
tp888
I47
s(S'RotAxis'
p889
S'Y'
p890
g104
tp891
I177
s(S'TranslocSpeed'
p892
F0.5991256
Vlift
p893
tp894
I249
s(S'RotAxis'
p895
S'X'
p896
g17
tp897
I154
s(S'RotAngle'
p898
F105.25
Vturn
p899
tp900
I204
s(S'MotionSpeed'
p901
F4.637863
g260
tp902
I10
s(S'TranslocSpeed'
p903
F2.111848
g193
tp904
I271
s(S'TranslocDir'
p905
(F-0.09953053
F0.0
F0.4553957
tp906
g298
tp907
I379
s(S'RotAngle'
p908
F307.9375
g676
tp909
I387
s(S'TranslocSpeed'
p910
F2.603278
g704
tp911
I62
s(S'TranslocSpeed'
p912
F0.9849894
g499
tp913
I291
s(S'MotionManner'
p914
S'spin(knife)'
p915
g124
tp916
I228
s(S'MotionManner'
p917
S'lean(paper_sheet,against(pencil))'
p918
Vturn
p919
tp920
I237
s(S'TranslocDir'
p921
(F0.0
F0.7492812
F0.0
tp922
g893
tp923
I250
s(S'MotionManner'
p924
S'lean(bottle,on(cork))'
p925
g256
tp926
I95
s(S'MotionManner'
p927
S'lean(plate,against(knife))'
p928
g176
tp929
I52
s(S'TranslocDir'
p930
(F-0.07324531
F0.0
F-0.656705
tp931
g121
tp932
I169
s(S'SymmetryAxis'
p933
S'Z'
p934
g745
tp935
I401
s(S'RotSpeed'
p936
F2.942988
g460
tp937
I130
s(S'RotDir'
p938
I-1
g222
tp939
I37
s(S'TranslocDir'
p940
(F-2.204277
F-0.247766
F0.2962722
tp941
Vopen
p942
tp943
I17
s(S'TranslocSpeed'
p944
F2.556473
Vlift
p945
tp946
I289
s(S'TranslocSpeed'
p947
F4.495313
Vlift
p948
tp949
I245
s(S'MotionManner'
p950
S'turn(apple)'
p951
Vmove
p952
tp953
I107
s(S'TranslocDir'
p954
(F0.0
F0.7061992
F0.0
tp955
g482
tp956
I316
s(S'RotAngle'
p957
F172.9296
g186
tp958
I184
s(S'RelOffset'
p959
(F-0.5355343
F0.296931
F-0.01599199
tp960
g506
tp961
I93
s(S'MotionSpeed'
p962
F0.8470118
g698
tp963
I20
s(S'MotionManner'
p964
S'spin(grape)'
p965
g33
tp966
I202
s(S'TranslocSpeed'
p967
F1.90953
g600
tp968
I279
s(S'TranslocSpeed'
p969
F2.263133
g52
tp970
I58
s(S'MotionManner'
p971
S'flip(disc,center(disc))'
p972
Vturn
p973
tp974
I183
s(S'TranslocDir'
p975
(F-0.2124754
F0.0
F0.8476102
tp976
Vturn
p977
tp978
I220
s(S'TranslocDir'
p979
(F4.470348e-08
F0.9306357
F0.0
tp980
g421
tp981
I294
s(S'TranslocSpeed'
p982
F3.326786
g183
tp983
I299
s(S'TranslocSpeed'
p984
F2.38304
Vlift
p985
tp986
I257
s(S'RotAngle'
p987
F57.5139
g93
tp988
I138
s(S'TranslocDir'
p989
(F0.1374618
F0.0
F0.7277713
tp990
g78
tp991
I364
s(S'RotSpeed'
p992
F4.306219
g952
tp993
I108
s(S'RotAngle'
p994
F-369.2608
g662
tp995
I393
s(S'MotionManner'
p996
S'slide(ball)'
p997
g228
tp998
I43
s(S'RotSpeed'
p999
F11.04518
g592
tp1000
I347
s(S'RotDir'
p1001
I1
g176
tp1002
I53
s(S'TranslocSpeed'
p1003
F2.255295
Vlift
p1004
tp1005
I261
s(S'RotSpeed'
p1006
F12.22345
g919
tp1007
I238
s(S'MotionManner'
p1008
S'roll(bowl)'
p1009
g977
tp1010
I219
s(S'RotSpeed'
p1011
F7.848799
g899
tp1012
I205
s(S'TranslocSpeed'
p1013
F0.3506464
g506
tp1014
I90
s(S'RotSpeed'
p1015
F11.6837
g573
tp1016
I357
s(S'TranslocDir'
p1017
(F0.0
F0.5842781
F0.0
tp1018
g985
tp1019
I258
s(S'RotSpeed'
p1020
F8.015513
g334
tp1021
I160
s(S'RotSpeed'
p1022
F3.853061
g694
tp1023
I214
s(S'RotAxis'
p1024
S'X'
p1025
g656
tp1026
I400
s(S'RotAngle'
p1027
F486.3298
g778
tp1028
I352
s(S'TranslocDir'
p1029
(F0.8204302
F0.0
F-0.7697436
tp1030
Vspin
p1031
tp1032
I360
s(S'RotAngle'
p1033
F32.81547
g526
tp1034
I189
s(S'MotionManner'
p1035
S'slide(pencil)'
p1036
g144
tp1037
I140
s(S'MotionManner'
p1038
S'flip(apple,edge(apple))'
p1039
Vturn
p1040
tp1041
I209
s(S'RotAngle'
p1042
F142.6505
g416
tp1043
I156
s(S'TranslocDir'
p1044
(F0.0
F0.1293831
F0.0
tp1045
g442
tp1046
I318
s(S'TranslocSpeed'
p1047
F2.274046
g167
tp1048
I87
s(S'RotSpeed'
p1049
F7.126992
g263
tp1050
I350
s(S'TranslocDir'
p1051
(F0.5413572
F0.0
F0.03848431
tp1052
g400
tp1053
I339
s(S'RotDir'
p1054
I-1
g526
tp1055
I191
s(S'TranslocDir'
p1056
(F0.2033113
F-0.6456926
F-0.8723536
tp1057
g87
tp1058
I25
s(S'MotionSpeed'
p1059
F3.936836
g942
tp1060
I18
s(S'MotionSpeed'
p1061
F2.297372
Vclose
p1062
tp1063
I8
s(S'RotAngle'
p1064
F283.9283
g470
tp1065
I361
s(S'RotSpeed'
p1066
F10.80267
g277
tp1067
I182
s(S'TranslocSpeed'
p1068
F3.277989
g820
tp1069
I265
s(S'RotAngle'
p1070
F-216.8074
g55
tp1071
I372
s(S'TranslocSpeed'
p1072
F4.748388
g561
tp1073
I132
s(S'MotionManner'
p1074
S'stack(knife,pencil)'
p1075
g561
tp1076
I133
s(S'RotAxis'
p1077
S'Y'
p1078
g222
tp1079
I38
s(S'RotAngle'
p1080
F90.0
g919
tp1081
I236
s(S'RotAngle'
p1082
F-500.0562
Vspin
p1083
tp1084
I333
s(S'TranslocDir'
p1085
(F-0.05491841
F0.0
F0.784187
tp1086
g228
tp1087
I44
s(S'RotSpeed'
p1088
F2.962084
g647
tp1089
I366
s(S'RotSpeed'
p1090
F1.66136
g155
tp1091
I167
s(S'TranslocSpeed'
p1092
F0.08383572
g772
tp1093
I275
s(S'RotAxis'
p1094
S'Z'
p1095
g869
tp1096
I75
s(S'RotAngle'
p1097
F-434.7071
g111
tp1098
I384
s(S'MotionSpeed'
p1099
F3.961755
g285
tp1100
I13
s(S'TranslocDir'
p1101
(F-0.4896523
F0.0
F-0.3770692
tp1102
g630
tp1103
I164
s(S'RotSpeed'
p1104
F9.886058
g114
tp1105
I381
s(S'MotionManner'
p1106
S'lift(pencil)'
p1107
g81
tp1108
I143
s(S'RotDir'
p1109
I-1
g1083
tp1110
I335
s(S'TranslocSpeed'
p1111
F2.993017
g510
tp1112
I303
s(S'RotAngle'
p1113
F165.2171
g952
tp1114
I106
s(S'RotAngle'
p1115
F180.0
g235
tp1116
I206
s(S'RotAngle'
p1117
F43.10715
g671
tp1118
I186
s(S'MotionManner'
p1119
S'stack(blackboard,ball)'
p1120
g167
tp1121
I88
s(S'MotionSpeed'
p1122
F2.390957
g20
tp1123
I1
s(S'TranslocDir'
p1124
(F0.0
F0.4474995
F0.0
tp1125
g1004
tp1126
I262
s(S'RotAxis'
p1127
S'Z'
p1128
g207
tp1129
I198
s(S'TranslocDir'
p1130
(F0.0
F0.353132
F0.0
tp1131
g533
tp1132
I298
s(S'RotAngle'
p1133
F455.9153
g616
tp1134
I325
s(S'RotSpeed'
p1135
F0.9735346
g33
tp1136
I203
s(S'TranslocSpeed'
p1137
F2.655697
g887
tp1138
I45
s(S'TranslocSpeed'
p1139
F4.736666
g256
tp1140
I94
s(S'TranslocSpeed'
p1141
F3.62548
g446
tp1142
I98
s(S'RotSpeed'
p1143
F11.87826
g712
tp1144
I200
s(S'MotionManner'
p1145
S'lift(plate)'
p1146
g887
tp1147
I46
s(S'TranslocDir'
p1148
(F0.0
F0.756135
F0.0
tp1149
g802
tp1150
I248
s(S'TranslocDir'
p1151
(F0.0
F0.3662255
F0.0
tp1152
g816
tp1153
I286
s(S'MotionManner'
p1154
S'stack(paper_sheet,bowl)'
p1155
g424
tp1156
I151
s(S'RotAngle'
p1157
F525.2396
g522
tp1158
I331
s(S'SymmetryAxis'
p1159
S'Y'
p1160
g16
tp1161
I403
s(S'RotAngle'
p1162
F170.9972
g210
tp1163
I113
s(S'TranslocDir'
p1164
(F0.0
F1.101034
F0.0
tp1165
g948
tp1166
I246
s(S'RotAngle'
p1167
F59.57208
g365
tp1168
I225
s(S'TranslocSpeed'
p1169
F3.958493
g18
tp1170
I239
s(S'TranslocDir'
p1171
(F-0.5281171
F0.0
F0.04425396
tp1172
g21
tp1173
I320
s(S'RotSpeed'
p1174
F3.765241
g1083
tp1175
I334
s(S'TranslocDir'
p1176
(F-0.5544455
F0.0
F-0.833585
tp1177
g144
tp1178
I141
s(S'RotAngle'
p1179
F470.1736
g231
tp1180
I340
s(S'RelOffset'
p1181
(F-0.296109
F-0.05980802
F-0.3785043
tp1182
g66
tp1183
I121
s(S'SymmetryAxis'
p1184
S'Z'
p1185
g338
tp1186
I117
s(S'MotionManner'
p1187
S'roll(ball)'
p1188
g519
tp1189
I329
s(S'TranslocDir'
p1190
(F0.0
F1.010379
F0.0
tp1191
g488
tp1192
I288
s(S'TranslocDir'
p1193
(F0.0
F0.3566332
F0.0
tp1194
g945
tp1195
I290
s(S'TranslocSpeed'
p1196
F0.1713264
g218
tp1197
I79
s(S'RotSpeed'
p1198
F7.80068
g453
tp1199
I218
s(S'RotAngle'
p1200
F83.1692
g238
tp1201
I6
ssS'_length'
p1202
I409
sS'_unseen'
p1203
NsS'_alwayson'
p1204
NsbsS'_weights'
p1205
cnumpy.core.multiarray
_reconstruct
p1206
(cnumpy
ndarray
p1207
(I0
tp1208
S'b'
p1209
tp1210
Rp1211
(I1
(I410
tp1212
cnumpy
dtype
p1213
(S'f8'
p1214
I0
I1
tp1215
Rp1216
(I3
S'<'
p1217
NNNI-1
I-1
I0
tp1218
bI00
S'D\xb8\xf7-\xe3*\t@.\xd8\xf4&\x9c\xea\x10@\xdc\xd5\xbc\xd9\x8cq\n@\xde3oo\xf0\xd2\xf6?\xdc\xd5\xbc\xd9\x8cq\n@.\xd8\xf4&\x9c\xea\x10@\xdc\xd5\xbc\xd9\x8cq\n@\xdc\xd5\xbc\xd9\x8cq\n@.\xd8\xf4&\x9c\xea\x10@nX\x13j*\xeb\x0c@tX\x13j*\xeb\x0c@\x88\x80`\x13\xfe\xb6\x03@\x91\x80`\x13\xfe\xb6\x03@\x91\x80`\x13\xfe\xb6\x03@tX\x13j*\xeb\x0c@\x91\x80`\x13\xfe\xb6\x03@\x91\x80`\x13\xfe\xb6\x03@\x91\x80`\x13\xfe\xb6\x03@\x91\x80`\x13\xfe\xb6\x03@iX\x13j*\xeb\x0c@vX\x13j*\xeb\x0c@\x88\x80`\x13\xfe\xb6\x03@\x91\x80`\x13\xfe\xb6\x03@\x91\x80`\x13\xfe\xb6\x03@vX\x13j*\xeb\x0c@\x91\x80`\x13\xfe\xb6\x03@\x91\x80`\x13\xfe\xb6\x03@vX\x13j*\xeb\x0c@\x91\x80`\x13\xfe\xb6\x03@\x91\x80`\x13\xfe\xb6\x03@\x95X\x13j*\xeb\x0c@\x95X\x13j*\xeb\x0c@\x8f\x80`\x13\xfe\xb6\x03@\x8f\x80`\x13\xfe\xb6\x03@\x8f\x80`\x13\xfe\xb6\x03@\x02\xfc\x07\x1d\x00\xfd\x05@\x02\xfc\x07\x1d\x00\xfd\x05@@\x0e\x8d\x07\xe9\x94\xe7?\x12\xc10\x91\x97\xf0\xef\xbf\x02\xfc\x07\x1d\x00\xfd\x05@\\\x92\xb4"\xbba @\xc0\xfe84\x1b\xdf\xf3?\x8f\x80`\x13\xfe\xb6\x03@\x8f\x80`\x13\xfe\xb6\x03@\x8f\x80`\x13\xfe\xb6\x03@\x8f\x80`\x13\xfe\xb6\x03@\x8f\x80`\x13\xfe\xb6\x03@\x8f\x80`\x13\xfe\xb6\x03@\xaf/\xa6F\x90\xf2#@\xdf:iX3L\xfb?E\x13M\xebg\x0f\x04\xc0\x8b\x9cG\xe3B~\x00@\x8b\x9cG\xe3B~\x00@^\x82\r>J9\xe0?\x8b\x9cG\xe3B~\x00@\xa7p\xcc\xcf\x02\x1d\xf8?\x95X\x13j*\xeb\x0c@\x95X\x13j*\xeb\x0c@\xc4\xcd\x87*9\x92\xfd?\xc4\xcd\x87*9\x92\xfd?\xc4\xcd\x87*9\x92\xfd?\xc4\xcd\x87*9\x92\xfd?\x8f\x80`\x13\xfe\xb6\x03@\x8f\x80`\x13\xfe\xb6\x03@\x8f\x80`\x13\xfe\xb6\x03@\x02\xfc\x07\x1d\x00\xfd\x05@\x02\xfc\x07\x1d\x00\xfd\x05@\x02\xfc\x07\x1d\x00\xfd\x05@k\xc8r\xf7\xd1@\xfe?k\xc8r\xf7\xd1@\xfe?k\xc8r\xf7\xd1@\xfe?\x8f\x80`\x13\xfe\xb6\x03@\x8f\x80`\x13\xfe\xb6\x03@\x8f\x80`\x13\xfe\xb6\x03@\xbbl\xed\xb0\xa7\xb4\x1d@Mc\x86\xc3\xce\x89\xf0?p\xf92\xdeeN\x06@p\xf92\xdeeN\x06@p\xf92\xdeeN\x06@B\xfd3\xdf\x0e\xdc\xfc?B\xfd3\xdf\x0e\xdc\xfc?B\xfd3\xdf\x0e\xdc\xfc?B\xfd3\xdf\x0e\xdc\xfc?B\xfd3\xdf\x0e\xdc\xfc?B\xfd3\xdf\x0e\xdc\xfc?B\xfd3\xdf\x0e\xdc\xfc?B\xfd3\xdf\x0e\xdc\xfc?\x8f\x80`\x13\xfe\xb6\x03@\x8f\x80`\x13\xfe\xb6\x03@\x8f\x80`\x13\xfe\xb6\x03@\xc4\xcd\x87*9\x92\xfd?\xc4\xcd\x87*9\x92\xfd?\xc4\xcd\x87*9\x92\xfd?\xc4\xcd\x87*9\x92\xfd?} \xcdrE;\x01@} \xcdrE;\x01@} \xcdrE;\x01@\x0c\xe2\xd1\xbe\xba,\xf5?\xc4\xcd\x87*9\x92\xfd?\xc4\xcd\x87*9\x92\xfd?\xc4\xcd\x87*9\x92\xfd?\xc4\xcd\x87*9\x92\xfd?\xbbl\xed\xb0\xa7\xb4\x1d@\xf6\x86\x9eM\xe5<\x03@\xf6\x86\x9eM\xe5<\x03@\xf6\x86\x9eM\xe5<\x03@\xf6\x86\x9eM\xe5<\x03@\xf6\x86\x9eM\xe5<\x03@\xf6\x86\x9eM\xe5<\x03@\x16t\xe0\xbf\xb2\xe1\x05@8\xd7US\xaf\x8c\x13@\x95X\x13j*\xeb\x0c@\x95X\x13j*\xeb\x0c@\xf6\x86\x9eM\xe5<\x03@\xf6\x86\x9eM\xe5<\x03@\xf6\x86\x9eM\xe5<\x03@W\x82\x07\xf4\xb8\x8b\x18@?\x8bj3\xd4\xa3\xf9?\xc4\xcd\x87*9\x92\xfd?\xc4\xcd\x87*9\x92\xfd?\xc4\xcd\x87*9\x92\xfd?\xc4\xcd\x87*9\x92\xfd?\xf6\x86\x9eM\xe5<\x03@\xf6\x86\x9eM\xe5<\x03@\xf6\x86\x9eM\xe5<\x03@\x8f\x80`\x13\xfe\xb6\x03@\x8f\x80`\x13\xfe\xb6\x03@\x8f\x80`\x13\xfe\xb6\x03@B\xfd3\xdf\x0e\xdc\xfc?B\xfd3\xdf\x0e\xdc\xfc?B\xfd3\xdf\x0e\xdc\xfc?B\xfd3\xdf\x0e\xdc\xfc?\x8f\x80`\x13\xfe\xb6\x03@\x8f\x80`\x13\xfe\xb6\x03@\x8f\x80`\x13\xfe\xb6\x03@B\xfd3\xdf\x0e\xdc\xfc?B\xfd3\xdf\x0e\xdc\xfc?B\xfd3\xdf\x0e\xdc\xfc?B\xfd3\xdf\x0e\xdc\xfc?\x8f\x80`\x13\xfe\xb6\x03@\x8f\x80`\x13\xfe\xb6\x03@\x8f\x80`\x13\xfe\xb6\x03@\x8f\x80`\x13\xfe\xb6\x03@\x8f\x80`\x13\xfe\xb6\x03@\x8f\x80`\x13\xfe\xb6\x03@\x16t\xe0\xbf\xb2\xe1\x05@8\xd7US\xaf\x8c\x13@\x02\xfc\x07\x1d\x00\xfd\x05@\x02\xfc\x07\x1d\x00\xfd\x05@\x02\xfc\x07\x1d\x00\xfd\x05@\x8f\x80`\x13\xfe\xb6\x03@\x8f\x80`\x13\xfe\xb6\x03@\x8f\x80`\x13\xfe\xb6\x03@\x89\xf7\xb2\xc2\x90\xda\x1f@\x01x\x84x\x86\xd7\xdc?\x9e\r\xabG\x8e\xe6\xf1?\x19\'\r\x18\xfcD\x07@\x19\'\r\x18\xfcD\x07@\xebt\x1f\xb1/\x10\xfc?\x19\'\r\x18\xfcD\x07@\x19\'\r\x18\xfcD\x07@\x19\'\r\x18\xfcD\x07@\x19\'\r\x18\xfcD\x07@\x08t\xe0\xbf\xb2\xe1\x05@5\xd7US\xaf\x8c\x13@|\x1d\xeaB\xaf\r\x00@|\x1d\xeaB\xaf\r\x00@|\x1d\xeaB\xaf\r\x00@\x89X\x13j*\xeb\x0c@\x87X\x13j*\xeb\x0c@\x87X\x13j*\xeb\x0c@\x1b"\xd7\x03\xdaa\x1f@\xeb\xda\x18\xa5\xae\x0e\xed?\x19\'\r\x18\xfcD\x07@\x19\'\r\x18\xfcD\x07@\x17\xc31\xe4\xa5\x0e\x00@\x17\xc31\xe4\xa5\x0e\x00@\x0eq\r\xf1*\xda\xdd?\x17\xc31\xe4\xa5\x0e\x00@\x19\'\r\x18\xfcD\x07@\x19\'\r\x18\xfcD\x07@\x19\'\r\x18\xfcD\x07@\x19\'\r\x18\xfcD\x07@\x1b"\xd7\x03\xdaa\x1f@\x19\'\r\x18\xfcD\x07@\x19\'\r\x18\xfcD\x07@|\x1d\xeaB\xaf\r\x00@|\x1d\xeaB\xaf\r\x00@|\x1d\xeaB\xaf\r\x00@\xf3\xbb\xd7\xbd\xed\xf7\x04@\x99\xee>s\xb50\x02@\x91\x976\xbb\x1c\x87\xc5?\xf3\xbb\xd7\xbd\xed\xf7\x04@P\x99\x82~\x7f\xfa\xfe?P\x99\x82~\x7f\xfa\xfe?\x19\'\r\x18\xfcD\x07@\x19\'\r\x18\xfcD\x07@\xf5\n\x96\xacKE#@\xe8{\xb4\xcaW\xbe\xf5\xbf\x19\'\r\x18\xfcD\x07@\x19\'\r\x18\xfcD\x07@\x17\xc31\xe4\xa5\x0e\x00@\x17\xc31\xe4\xa5\x0e\x00@\x17\xc31\xe4\xa5\x0e\x00@\x19\'\r\x18\xfcD\x07@\x19\'\r\x18\xfcD\x07@\x11\xdc\xe8\xc1g+\xf6?\xa5R\x11\xaaK"\x03@\xa5R\x11\xaaK"\x03@\x1b"\xd7\x03\xdaa\x1f@\x19\'\r\x18\xfcD\x07@\x19\'\r\x18\xfcD\x07@\x06\xe1^wMI\x04@\x06\xe1^wMI\x04@\x06\xe1^wMI\x04@\x9b\xf3U\x7f\x02g\x16@\x87\x8e\xaeT\xca\xb0\x04@\x19\'\r\x18\xfcD\x07@\x19\'\r\x18\xfcD\x07@\x08t\xe0\xbf\xb2\xe1\x05@5\xd7US\xaf\x8c\x13@\x19\'\r\x18\xfcD\x07@\x19\'\r\x18\xfcD\x07@\x19\'\r\x18\xfcD\x07@\x19\'\r\x18\xfcD\x07@\x19\'\r\x18\xfcD\x07@\x19\'\r\x18\xfcD\x07@\x06\xe1^wMI\x04@\x06\xe1^wMI\x04@\x06\xe1^wMI\x04@\x19\'\r\x18\xfcD\x07@\x19\'\r\x18\xfcD\x07@\x1b"\xd7\x03\xdaa\x1f@\x19\'\r\x18\xfcD\x07@\x19\'\r\x18\xfcD\x07@c=\x83\xe4\xbf\x1d\x1e@\xf7\xb6\xb4\xc4k\xde\xf1?\xe9\xf5\x9e\xa6\x9a/\x04@\xe9\xf5\x9e\xa6\x9a/\x04@\x80X\x13j*\xeb\x0c@\x80X\x13j*\xeb\x0c@\x80X\x13j*\xeb\x0c@\x80X\x13j*\xeb\x0c@\x80X\x13j*\xeb\x0c@\x80X\x13j*\xeb\x0c@\x80X\x13j*\xeb\x0c@\x80X\x13j*\xeb\x0c@\x80X\x13j*\xeb\x0c@\x80X\x13j*\xeb\x0c@\x80X\x13j*\xeb\x0c@\x80X\x13j*\xeb\x0c@\x80X\x13j*\xeb\x0c@\x80X\x13j*\xeb\x0c@\x80X\x13j*\xeb\x0c@\x80X\x13j*\xeb\x0c@\x80X\x13j*\xeb\x0c@\x80X\x13j*\xeb\x0c@\x80X\x13j*\xeb\x0c@\x80X\x13j*\xeb\x0c@\x80X\x13j*\xeb\x0c@\x80X\x13j*\xeb\x0c@\x80X\x13j*\xeb\x0c@\x80X\x13j*\xeb\x0c@\x80X\x13j*\xeb\x0c@\x80X\x13j*\xeb\x0c@\x80X\x13j*\xeb\x0c@\x80X\x13j*\xeb\x0c@\x80X\x13j*\xeb\x0c@\x80X\x13j*\xeb\x0c@\x80X\x13j*\xeb\x0c@\x80X\x13j*\xeb\x0c@\x80X\x13j*\xeb\x0c@\x80X\x13j*\xeb\x0c@\x80X\x13j*\xeb\x0c@\x80X\x13j*\xeb\x0c@\x80X\x13j*\xeb\x0c@\x80X\x13j*\xeb\x0c@\x80X\x13j*\xeb\x0c@\x80X\x13j*\xeb\x0c@\x80X\x13j*\xeb\x0c@\x80X\x13j*\xeb\x0c@\x80X\x13j*\xeb\x0c@\x80X\x13j*\xeb\x0c@\x80X\x13j*\xeb\x0c@\x80X\x13j*\xeb\x0c@\x80X\x13j*\xeb\x0c@\x80X\x13j*\xeb\x0c@\x80X\x13j*\xeb\x0c@\x80X\x13j*\xeb\x0c@\x80X\x13j*\xeb\x0c@\x80X\x13j*\xeb\x0c@\x80X\x13j*\xeb\x0c@\x80X\x13j*\xeb\x0c@\x80X\x13j*\xeb\x0c@\x80X\x13j*\xeb\x0c@\x80X\x13j*\xeb\x0c@\x80X\x13j*\xeb\x0c@\x80X\x13j*\xeb\x0c@\x80X\x13j*\xeb\x0c@\x80X\x13j*\xeb\x0c@\x80X\x13j*\xeb\x0c@\x80X\x13j*\xeb\x0c@\x80X\x13j*\xeb\x0c@\x80X\x13j*\xeb\x0c@\x80X\x13j*\xeb\x0c@\x80X\x13j*\xeb\x0c@\x80X\x13j*\xeb\x0c@\x80X\x13j*\xeb\x0c@\x80X\x13j*\xeb\x0c@\x80X\x13j*\xeb\x0c@\x80X\x13j*\xeb\x0c@\x80X\x13j*\xeb\x0c@\x80X\x13j*\xeb\x0c@\x80X\x13j*\xeb\x0c@\x80X\x13j*\xeb\x0c@\x80X\x13j*\xeb\x0c@\x80X\x13j*\xeb\x0c@\x80X\x13j*\xeb\x0c@\x80X\x13j*\xeb\x0c@kX\x13j*\xeb\x0c@kX\x13j*\xeb\x0c@\x96$$\xa3\xfbq\x05@\x96$$\xa3\xfbq\x05@o\xb8\x1d\x02\xab\xe8\xf1?\xd9\xb5\x0cY\xaa\xa8\xf8?\x96$$\xa3\xfbq\x05@\x96$$\xa3\xfbq\x05@\x96$$\xa3\xfbq\x05@\x96$$\xa3\xfbq\x05@\x02t\xe0\xbf\xb2\xe1\x05@,\xd7US\xaf\x8c\x13@\x96$$\xa3\xfbq\x05@\x96$$\xa3\xfbq\x05@\xce5\xa9zL\xf0\x01@\xce5\xa9zL\xf0\x01@2\xcf\xd7;\xed\xe1\xfc?\x96$$\xa3\xfbq\x05@\x96$$\xa3\xfbq\x05@kX\x13j*\xeb\x0c@kX\x13j*\xeb\x0c@\x96$$\xa3\xfbq\x05@\x96$$\xa3\xfbq\x05@\xce5\xa9zL\xf0\x01@\xce5\xa9zL\xf0\x01@nX\x13j*\xeb\x0c@hX\x13j*\xeb\x0c@\xce5\xa9zL\xf0\x01@\xce5\xa9zL\xf0\x01@hX\x13j*\xeb\x0c@\xde\x89p\xcb\xf7\xd5\t@\xde\x89p\xcb\xf7\xd5\t@#<\x10\x16\xb9\xba\xd6\xbf\x96$$\xa3\xfbq\x05@\x96$$\xa3\xfbq\x05@\x96$$\xa3\xfbq\x05@\x96$$\xa3\xfbq\x05@\xce5\xa9zL\xf0\x01@\xce5\xa9zL\xf0\x01@nX\x13j*\xeb\x0c@hX\x13j*\xeb\x0c@hX\x13j*\xeb\x0c@\x96$$\xa3\xfbq\x05@\x96$$\xa3\xfbq\x05@nX\x13j*\xeb\x0c@hX\x13j*\xeb\x0c@\xce5\xa9zL\xf0\x01@\xce5\xa9zL\xf0\x01@hX\x13j*\xeb\x0c@\nt\xe0\xbf\xb2\xe1\x05@+\xd7US\xaf\x8c\x13@\xce5\xa9zL\xf0\x01@\xce5\xa9zL\xf0\x01@\xce5\xa9zL\xf0\x01@\xce5\xa9zL\xf0\x01@\x96$$\xa3\xfbq\x05@\x96$$\xa3\xfbq\x05@\x96$$\xa3\xfbq\x05@\x96$$\xa3\xfbq\x05@\x02t\xe0\xbf\xb2\xe1\x05@,\xd7US\xaf\x8c\x13@\xce5\xa9zL\xf0\x01@\xce5\xa9zL\xf0\x01@\xde\x89p\xcb\xf7\xd5\t@\xde\x89p\xcb\xf7\xd5\t@\xa73&\x0e \x9f\x0c@\xa73&\x0e \x9f\x0c@\xd4AL5\x8a6\xec\xbf)Ez\xb0\xf8\xe4\x0f@)Ez\xb0\xf8\xe4\x0f@\nt\xe0\xbf\xb2\xe1\x05@+\xd7US\xaf\x8c\x13@\x96$$\xa3\xfbq\x05@\x96$$\xa3\xfbq\x05@\xce5\xa9zL\xf0\x01@\xce5\xa9zL\xf0\x01@kX\x13j*\xeb\x0c@kX\x13j*\xeb\x0c@\x94\x04\x9d\xf2x\xfe\t@\xef\x8e\xa0\xd3\xf5\xf9\xfa?\x99\x02\xb8^\xe8b\x04@\x127\xb7\xde?\x82\x01@\xa7h\x10\xdb\x1d%\x0f@\x1c\x9d\xdd7z\x83\xed?\x86\x17p\x80\xcf\xe3\t@\x0eb\x13\x93\n\x90\x02@h\x10\xda\x88\x15\xe0\x05@\xb9qA\xdc\x01\r\x0b@/!\xcaH*\xde\xf6?\x8c7\xd4\t\n%\x05@\x11\xff\xba\xd8\x18\x96\xe3\xbf'
p1219
tp1220
bsb.