ccopy_reg
_reconstructor
p0
(cnltk.classify.maxent
MaxentClassifier
p1
c__builtin__
object
p2
Ntp3
Rp4
(dp5
S'_logarithmic'
p6
I01
sS'_encoding'
p7
g0
(cnltk.classify.maxent
GISEncoding
p8
g2
Ntp9
Rp10
(dp11
S'_labels'
p12
(lp13
Vlift the book
p14
aVlift the grape
p15
aVturn the apple
p16
aVturn the cup
p17
aVspin the grape
p18
aVmove the banana
p19
aVmove the block
p20
aVclose the cup
p21
aVlift the ball
p22
aVturn the grape
p23
aVmove the disc
p24
aVturn the bowl
p25
aVspin the bottle
p26
aVspin the paper sheet
p27
aVspin the blackboard
p28
aVflip the grape at center
p29
aVlift the bottle
p30
aVflip the book at center
p31
aVlift the paper sheet
p32
aVflip the block on edge
p33
aVturn the paper sheet
p34
aVmove the bottle
p35
aVlift the banana
p36
aVlift the block
p37
aVopen the book
p38
aVflip the plate at center
p39
aVspin the bowl
p40
aVturn the pencil
p41
aVturn the knife
p42
aVflip the blackboard on edge
p43
aVlift the knife
p44
aVturn the disc
p45
aVturn the ball
p46
aVmove the apple
p47
aVmove the plate
p48
aVmove the bowl
p49
aVlift the bowl
p50
aVopen the cup
p51
aVturn the book
p52
aVturn the banana
p53
aVflip the cup at center
p54
aVturn the plate
p55
aVlift the pencil
p56
aVflip the book on edge
p57
aVlift the plate
p58
aVspin the apple
p59
aVturn the blackboard
p60
aVmove the cup
p61
aVspin the banana
p62
aVspin the block
p63
aVlift the blackboard
p64
aVmove the blackboard
p65
aVopen the bottle
p66
aVmove the grape
p67
aVclose the bottle
p68
aVlift the disc
p69
aVmove the paper sheet
p70
aVmove the pencil
p71
aVspin the ball
p72
aVmove the ball
p73
aVlift the apple
p74
aVmove the knife
p75
aVturn the block
p76
aVspin the plate
p77
aVclose the book
p78
aVspin the pencil
p79
aVspin the disc
p80
aVflip the bottle at center
p81
aVturn the bottle
p82
aVmove the book
p83
aVflip the disc at center
p84
aVspin the book
p85
aVspin the knife
p86
aVlift the cup
p87
aVspin the cup
p88
asS'_C'
p89
I12
sS'_mapping'
p90
(dp91
(S'TranslocSpeed'
p92
F0.6113404
Vlift the ball
p93
tp94
I295
s(S'MotionManner'
p95
S'slide(book)'
p96
g83
tp97
I75
s(S'RotAxis'
p98
S'X'
p99
g43
tp100
I487
s(S'MotionManner'
p101
S'put(cork,on(bottle))'
p102
g68
tp103
I19
s(S'RotAxis'
p104
S'Y'
p105
g72
tp106
I378
s(S'TranslocSpeed'
p107
F2.255295
g69
tp108
I309
s(S'TranslocDir'
p109
(F0.0
F0.5803504
F0.0
tp110
Vlift the plate
p111
tp112
I300
s(S'RotAngle'
p113
F161.8341
Vturn the block
p114
tp115
I177
s(S'RotDir'
p116
I1
g65
tp117
I87
s(S'RotDir'
p118
I1
Vspin the block
p119
tp120
I371
s(S'TranslocSpeed'
p121
F0.8024031
Vmove the block
p122
tp123
I32
s(S'RotAxis'
p124
S'X'
p125
g17
tp126
I191
s(S'RotSpeed'
p127
F8.015513
g114
tp128
I178
s(S'MotionManner'
p129
S'roll(bowl)'
p130
g25
tp131
I256
s(S'MotionManner'
p132
S'flip(pencil,center(pencil))'
p133
Vturn the pencil
p134
tp135
I274
s(S'MotionManner'
p136
S'put(bowl,near(cup))'
p137
g49
tp138
I133
s(S'RotSpeed'
p139
F3.853061
g53
tp140
I250
s(S'RotAxis'
p141
S'X'
p142
g79
tp143
I462
s(S'MotionManner'
p144
S'roll(plate)'
p145
g55
tp146
I187
s(S'SymmetryAxis'
p147
S'Y'
p148
g39
tp149
I489
s(S'RotSpeed'
p150
F3.42393
Vturn the bowl
p151
tp152
I262
s(S'TranslocDir'
p153
(F0.703891
F0.000191927
F-0.8785043
tp154
g49
tp155
I134
s(S'RotDir'
p156
I1
g75
tp157
I145
s(S'RotAxis'
p158
S'Y'
p159
Vturn the cup
p160
tp161
I198
s(S'TranslocDir'
p162
(F0.0
F0.7774734
F0.0
tp163
Vlift the book
p164
tp165
I316
s(S'TranslocSpeed'
p166
F4.881417
Vlift the disc
p167
tp168
I311
s(S'MotionSpeed'
p169
F1.202949
Vclose the bottle
p170
tp171
I24
s(S'SymmetryAxis'
p172
S'X'
p173
Vmove the ball
p174
tp175
I41
s(S'RotSpeed'
p176
F3.87532
Vspin the paper sheet
p177
tp178
I473
s(S'TranslocSpeed'
p179
F2.103319
Vmove the blackboard
p180
tp181
I90
s(S'RotDir'
p182
I1
g46
tp183
I181
s(S'TranslocDir'
p184
(F0.0
F0.9362621
F0.0
tp185
Vlift the cup
p186
tp187
I308
s(S'MotionManner'
p188
S'roll(bowl)'
p189
Vspin the bowl
p190
tp191
I450
s(S'MotionSpeed'
p192
F0.5272764
g66
tp193
I23
s(S'RotSpeed'
p194
F1.66136
Vturn the ball
p195
tp196
I186
s(S'RotAngle'
p197
F90.0
Vmove the disc
p198
tp199
I73
s(S'RotDir'
p200
I1
Vmove the grape
p201
tp202
I115
s(S'MotionManner'
p203
S'turn(front_cover)'
p204
g78
tp205
I0
s(S'MotionManner'
p206
S'stack(blackboard,ball)'
p207
Vmove the blackboard
p208
tp209
I95
s(S'RotSpeed'
p210
F4.993581
Vspin the plate
p211
tp212
I388
s(S'MotionManner'
p213
S'roll(bottle)'
p214
g26
tp215
I419
s(S'RotAngle'
p216
F83.99393
Vturn the cup
p217
tp218
I193
s(S'MotionManner'
p219
S'flip(bottle,edge(bottle))'
p220
Vturn the bottle
p221
tp222
I225
s(S'TranslocDir'
p223
(F0.0
F1.18816
F0.0
tp224
Vlift the blackboard
p225
tp226
I324
s(S'MotionManner'
p227
S'flip(apple,edge(apple))'
p228
g16
tp229
I240
s(S'MotionManner'
p230
S'put(apple,on(plate))'
p231
Vmove the apple
p232
tp233
I124
s(S'TranslocSpeed'
p234
F2.684366
Vmove the knife
p235
tp236
I151
s(S'TranslocDir'
p237
(F0.0
F0.589474
F0.0
tp238
g48
tp239
I47
s(S'TranslocSpeed'
p240
F3.874317
g71
tp241
I155
s(S'TranslocDir'
p242
(F0.0
F0.4153385
F0.0
tp243
Vlift the block
p244
tp245
I290
s(S'TranslocDir'
p246
(F0.3245949
F0.0
F0.8478341
tp247
Vspin the paper sheet
p248
tp249
I476
s(S'TranslocSpeed'
p250
F3.458633
g20
tp251
I30
s(S'TranslocDir'
p252
(F0.6628905
F0.0
F0.3793117
tp253
Vspin the disc
p254
tp255
I405
s(S'PlacementOrder'
p256
S'cup,bowl'
p257
Vmove the bowl
p258
tp259
I142
s(S'MotionManner'
p260
S'lean(bottle,on(cork))'
p261
Vmove the bottle
p262
tp263
I102
s(S'RotSpeed'
p264
F4.909875
g180
tp265
I92
s(S'RotSpeed'
p266
F1.787689
g217
tp267
I194
s(S'RotAngle'
p268
F127.8877
Vturn the bottle
p269
tp270
I228
s(S'SymmetryAxis'
p271
S'Z'
p272
Vflip the blackboard on edge
p273
tp274
I488
s(S'RotAngle'
p275
F34.74147
g195
tp276
I184
s(S'RotSpeed'
p277
F2.962084
Vspin the grape
p278
tp279
I429
s(S'TranslocSpeed'
p280
F0.1713264
g65
tp281
I85
s(S'RotSpeed'
p282
F2.214497
Vspin the bottle
p283
tp284
I423
s(S'RotAxis'
p285
S'Y'
p286
g70
tp287
I166
s(S'RotDir'
p288
I1
Vturn the paper sheet
p289
tp290
I285
s(S'RotSpeed'
p291
F3.401162
g19
tp292
I128
s(S'RotDir'
p293
I-1
g79
tp294
I461
s(S'RotDir'
p295
I1
g211
tp296
I389
s(S'RelOffset'
p297
(F-0.1703617
F0.1004961
F-0.4135511
tp298
Vmove the cup
p299
tp300
I61
s(S'RotAngle'
p301
F-434.7071
g79
tp302
I459
s(S'TranslocSpeed'
p303
F0.3506464
g35
tp304
I97
s(S'SymmetryAxis'
p305
S'Y'
p306
g16
tp307
I242
s(S'MotionSpeed'
p308
F2.208191
Vopen the book
p309
tp310
I7
s(S'RotSpeed'
p311
F3.530889
Vspin the pencil
p312
tp313
I464
s(S'RotAngle'
p314
F86.48315
g160
tp315
I196
s(S'RotAngle'
p316
F-305.9446
Vspin the disc
p317
tp318
I401
s(S'RotAxis'
p319
S'X'
p320
Vmove the plate
p321
tp322
I49
s(S'TranslocSpeed'
p323
F3.277989
g14
tp324
I313
s(S'MotionSpeed'
p325
F0.3162676
Vclose the bottle
p326
tp327
I27
s(S'RotSpeed'
p328
F11.37559
g41
tp329
I272
s(S'RotAxis'
p330
S'Z'
p331
g33
tp332
I478
s(S'RotDir'
p333
I-1
g77
tp334
I385
s(S'MotionManner'
p335
S'spin(ball)'
p336
g73
tp337
I36
s(S'RotSpeed'
p338
F4.306219
g47
tp339
I120
s(S'RotAngle'
p340
F25.24083
g24
tp341
I65
s(S'RotSpeed'
p342
F6.24387
Vturn the pencil
p343
tp344
I278
s(S'RotAngle'
p345
F130.1714
Vturn the bowl
p346
tp347
I258
s(S'TranslocSpeed'
p348
F0.6242365
Vmove the paper sheet
p349
tp350
I168
s(S'RotAngle'
p351
F32.81547
Vturn the blackboard
p352
tp353
I215
s(S'MotionManner'
p354
S'roll(apple)'
p355
Vmove the apple
p356
tp357
I121
s(S'TranslocDir'
p358
(F0.0
F0.6824667
F0.0
tp359
g167
tp360
I312
s(S'RotAngle'
p361
F51.96568
g38
tp362
I2
s(S'RotDir'
p363
I1
g40
tp364
I448
s(S'RotAxis'
p365
S'Y'
p366
Vturn the knife
p367
tp368
I269
s(S'MotionSpeed'
p369
F0.1339239
Vopen the bottle
p370
tp371
I26
s(S'MotionManner'
p372
S'lean(plate,against(knife))'
p373
Vmove the plate
p374
tp375
I52
s(S'RotSpeed'
p376
F3.1356
Vmove the bowl
p377
tp378
I139
s(S'RotAxis'
p379
S'X'
p380
Vflip the book at center
p381
tp382
I499
s(S'RotDir'
p383
I-1
g317
tp384
I403
s(S'RotAxis'
p385
S'X'
p386
g134
tp387
I275
s(S'RotAngle'
p388
F26.93816
g53
tp389
I246
s(S'RotAngle'
p390
F54.57996
g23
tp391
I230
s(S'TranslocDir'
p392
(F0.0
F0.7061992
F0.0
tp393
g32
tp394
I364
s(S'RotAngle'
p395
F99.31501
g343
tp396
I277
s(S'RotSpeed'
p397
F3.765241
g77
tp398
I384
s(S'TranslocDir'
p399
(F-0.6656906
F0.0
F-0.8248188
tp400
Vmove the pencil
p401
tp402
I162
s(S'MotionManner'
p403
S'spin(banana)'
p404
g53
tp405
I247
s(S'RotAxis'
p406
S'Y'
p407
g28
tp408
I413
s(S'MotionManner'
p409
S'flip(grape,center(grape))'
p410
Vmove the grape
p411
tp412
I110
s(S'RotSpeed'
p413
F8.646122
Vspin the knife
p414
tp415
I456
s(S'TranslocSpeed'
p416
F4.388855
g232
tp417
I123
s(S'MotionManner'
p418
S'lean(grape,on(block3))'
p419
Vturn the grape
p420
tp421
I238
s(S'RotSpeed'
p422
F6.446218
g42
tp423
I264
s(S'SymmetryAxis'
p424
S'Z'
p425
Vmove the banana
p426
tp427
I131
s(S'TranslocSpeed'
p428
F0.3956813
g87
tp429
I303
s(S'RotAngle'
p430
F-255.8531
Vspin the book
p431
tp432
I406
s(S'SymmetryAxis'
p433
S'Z'
p434
g76
tp435
I173
s(S'TranslocSpeed'
p436
F4.614017
Vlift the grape
p437
tp438
I333
s(S'RotAngle'
p439
F41.1444
g65
tp440
I89
s(S'SymmetryAxis'
p441
S'Y'
p442
Vturn the disc
p443
tp444
I207
s(S'RotAngle'
p445
F486.3298
g28
tp446
I410
s(S'RotSpeed'
p447
F5.352028
g65
tp448
I88
s(S'RotAngle'
p449
F141.5763
g201
tp450
I113
s(S'TranslocDir'
p451
(F0.0
F0.7986002
F0.0
tp452
Vmove the pencil
p453
tp454
I160
s(S'TranslocSpeed'
p455
F0.8326483
g164
tp456
I315
s(S'RotSpeed'
p457
F9.366237
g119
tp458
I370
s(S'RotAxis'
p459
S'X'
p460
g84
tp461
I495
s(S'RotDir'
p462
I1
g23
tp463
I232
s(S'RotAngle'
p464
F72.23972
g70
tp465
I163
s(S'MotionSpeed'
p466
F1.083121
Vopen the cup
p467
tp468
I16
s(S'RotAngle'
p469
F90.0
g289
tp470
I283
s(S'RotDir'
p471
I-1
g414
tp472
I457
s(S'RotSpeed'
p473
F8.00965
g70
tp474
I167
s(S'RotAngle'
p475
F283.9283
g283
tp476
I422
s(S'TranslocDir'
p477
(F-0.2410117
F0.0
F-0.5227658
tp478
Vspin the ball
p479
tp480
I380
s(S'RotAngle'
p481
F101.4173
Vturn the banana
p482
tp483
I253
s(S'MotionSpeed'
p484
F0.8470118
g68
tp485
I20
s(S'RotAngle'
p486
F-232.603
Vspin the blackboard
p487
tp488
I416
s(S'RotDir'
p489
I1
g42
tp490
I265
s(S'MotionSpeed'
p491
F2.297372
Vclose the book
p492
tp493
I8
s(S'RotAngle'
p494
F126.9441
g41
tp495
I271
s(S'TranslocSpeed'
p496
F0.08383572
g225
tp497
I323
s(S'MotionSpeed'
p498
F7.429715
g38
tp499
I4
s(S'RotSpeed'
p500
F10.80267
Vturn the disc
p501
tp502
I204
s(S'MotionManner'
p503
S'spin(disc)'
p504
g24
tp505
I66
s(S'RotAxis'
p506
S'Z'
p507
g54
tp508
I493
s(S'RotSpeed'
p509
F10.24815
g82
tp510
I223
s(S'RotSpeed'
p511
F2.942988
g75
tp512
I146
s(S'RotAxis'
p513
S'Y'
p514
Vmove the book
p515
tp516
I83
s(S'TranslocDir'
p517
(F0.0
F0.4474995
F0.0
tp518
g69
tp519
I310
s(S'RotDir'
p520
I-1
Vspin the apple
p521
tp522
I437
s(S'RotDir'
p523
I1
g60
tp524
I213
s(S'RotSpeed'
p525
F11.04518
g317
tp526
I402
s(S'PlacementOrder'
p527
S'paper_sheet,bowl'
p528
g349
tp529
I170
s(S'RotDir'
p530
I-1
g53
tp531
I248
s(S'SymmetryAxis'
p532
S'X'
p533
g29
tp534
I505
s(S'MotionManner'
p535
S'roll(pencil)'
p536
Vspin the pencil
p537
tp538
I466
s(S'TranslocDir'
p539
(F0.0
F0.8539486
F0.0
tp540
Vlift the plate
p541
tp542
I302
s(S'RotSpeed'
p543
F7.126992
g431
tp544
I407
s(S'MotionManner'
p545
S'roll(apple)'
p546
g59
tp547
I433
s(S'SymmetryAxis'
p548
S'X'
p549
Vmove the book
p550
tp551
I79
s(S'TranslocSpeed'
p552
F2.655969
g453
tp553
I158
s(S'RotDir'
p554
I-1
Vspin the bowl
p555
tp556
I454
s(S'RotAxis'
p557
S'Z'
p558
Vflip the plate at center
p559
tp560
I491
s(S'TranslocDir'
p561
(F0.0
F0.2315049
F0.0
tp562
g122
tp563
I34
s(S'TranslocSpeed'
p564
F2.38304
Vlift the cup
p565
tp566
I305
s(S'RotAngle'
p567
F458.4987
g211
tp568
I387
s(S'SymmetryAxis'
p569
S'Z'
p570
g57
tp571
I481
s(S'RotSpeed'
p572
F8.678174
Vspin the cup
p573
tp574
I397
s(S'RotAngle'
p575
F526.9747
Vspin the banana
p576
tp577
I443
s(S'TranslocDir'
p578
(F0.8204302
F0.0
F-0.7697436
tp579
Vspin the bottle
p580
tp581
I421
s(S'RotAngle'
p582
F120.6013
g82
tp583
I222
s(S'RotDir'
p584
I1
g283
tp585
I424
s(S'MotionManner'
p586
S'spin(book)'
p587
g515
tp588
I81
s(S'RotAngle'
p589
F180.0
g262
tp590
I105
s(S'TranslocDir'
p591
(F1.299091
F-0.6457663
F-1.200944
tp592
g66
tp593
I22
s(S'RotDir'
p594
I-1
g24
tp595
I67
s(S'TranslocSpeed'
p596
F4.748388
Vmove the knife
p597
tp598
I148
s(S'RotAxis'
p599
S'Y'
p600
g57
tp601
I482
s(S'RotSpeed'
p602
F4.632955
g46
tp603
I180
s(S'RotDir'
p604
I1
g312
tp605
I465
s(S'TranslocSpeed'
p606
F2.440411
Vlift the pencil
p607
tp608
I361
s(S'RotSpeed'
p609
F8.233168
g235
tp610
I153
s(S'RotAngle'
p611
F377.2106
g72
tp612
I375
s(S'RotDir'
p613
I1
g52
tp614
I210
s(S'RotAxis'
p615
S'Y'
p616
g62
tp617
I442
s(S'MotionManner'
p618
S'spin(paper_sheet)'
p619
g70
tp620
I164
s(S'RotDir'
p621
I1
g346
tp622
I260
s(S'RotDir'
p623
I1
Vspin the cup
p624
tp625
I394
s(S'SymmetryAxis'
p626
S'Y'
p627
g43
tp628
I486
s(S'SymmetryAxis'
p629
S'X'
p630
g411
tp631
I112
s(S'TranslocSpeed'
p632
F4.736666
g262
tp633
I101
s(S'RotAxis'
p634
S'Y'
p635
g73
tp636
I38
s(S'RotSpeed'
p637
F9.01031
g201
tp638
I116
s(S'MotionSpeed'
p639
F4.037564
Vopen the bottle
p640
tp641
I29
s(S'TranslocSpeed'
p642
F3.457394
Vmove the ball
p643
tp644
I42
s(S'RotAxis'
p645
S'Y'
p646
g27
tp647
I471
s(S'RotAngle'
p648
F180.0
g420
tp649
I237
s(S'MotionManner'
p650
S'turn(bowl)'
p651
g377
tp652
I137
s(S'TranslocDir'
p653
(F4.470348e-08
F0.9306357
F0.0
tp654
g36
tp655
I342
s(S'RotSpeed'
p656
F7.848799
Vturn the grape
p657
tp658
I236
s(S'MotionManner'
p659
S'spin(blackboard)'
p660
g352
tp661
I216
s(S'MotionManner'
p662
S'lift(cup)'
p663
Vmove the cup
p664
tp665
I63
s(S'RotAxis'
p666
S'Z'
p667
g431
tp668
I409
s(S'TranslocDir'
p669
(F2.384186e-07
F0.3840067
F2.980232e-08
tp670
g44
tp671
I352
s(S'TranslocDir'
p672
(F0.1681427
F2.384186e-07
F0.5118222
tp673
g83
tp674
I76
s(S'RotSpeed'
p675
F0.9735346
g23
tp676
I234
s(S'TranslocDir'
p677
(F-0.5281171
F0.0
F0.04425396
tp678
g63
tp679
I368
s(S'TranslocSpeed'
p680
F2.340133
g36
tp681
I341
s(S'TranslocDir'
p682
(F-0.035294
F0.0001692772
F-0.7652456
tp683
g35
tp684
I99
s(S'TranslocDir'
p685
(F-1.170362
F9.608269e-05
F-0.6635511
tp686
g299
tp687
I60
s(S'TranslocSpeed'
p688
F3.339347
g541
tp689
I301
s(S'MotionManner'
p690
S'stack(bowl,cup)'
p691
g258
tp692
I141
s(S'RotAngle'
p693
F56.65679
g515
tp694
I80
s(S'TranslocSpeed'
p695
F3.869181
g186
tp696
I307
s(S'MotionManner'
p697
S'lean(blackboard,on(pencil))'
p698
g65
tp699
I86
s(S'TranslocDir'
p700
(F0.1374618
F0.0
F0.7277713
tp701
g18
tp702
I427
s(S'TranslocDir'
p703
(F0.0
F0.5016611
F0.0
tp704
g15
tp705
I330
s(S'SymmetryAxis'
p706
S'Y'
p707
Vflip the block on edge
p708
tp709
I479
s(S'TranslocSpeed'
p710
F2.993017
g44
tp711
I351
s(S'MotionManner'
p712
S'flip(ball,center(ball))'
p713
g174
tp714
I40
s(S'RotAngle'
p715
F459.6351
Vspin the blackboard
p716
tp717
I414
s(S'MotionManner'
p718
S'flip(paper_sheet,center(paper_sheet))'
p719
g34
tp720
I279
s(S'RelOffset'
p721
(F-1.066662
F-0.06591892
F-0.6310182
tp722
g67
tp723
I109
s(S'RotAngle'
p724
F59.57208
g42
tp725
I263
s(S'TranslocSpeed'
p726
F0.9849894
Vlift the apple
p727
tp728
I339
s(S'RotSpeed'
p729
F6.294958
g576
tp730
I444
s(S'MotionManner'
p731
S'slide(ball)'
p732
g643
tp733
I43
s(S'MotionManner'
p734
S'put(cup,near(cork))'
p735
g299
tp736
I59
s(S'MotionManner'
p737
S'lean(blackboard,on(disc))'
p738
g60
tp739
I212
s(S'TranslocSpeed'
p740
F3.454099
g75
tp741
I143
s(S'TranslocSpeed'
p742
F2.527062
Vlift the pencil
p743
tp744
I359
s(S'TranslocSpeed'
p745
F2.692408
Vlift the grape
p746
tp747
I331
s(S'TranslocDir'
p748
(F0.0
F0.1906028
F0.0
tp749
g607
tp750
I362
s(S'TranslocDir'
p751
(F0.0
F1.010379
F0.0
tp752
g74
tp753
I336
s(S'TranslocSpeed'
p754
F3.538277
Vlift the book
p755
tp756
I317
s(S'RotDir'
p757
I-1
g431
tp758
I408
s(S'RotAngle'
p759
F79.82825
g377
tp760
I136
s(S'MotionManner'
p761
S'flip(banana,center(banana))'
p762
g426
tp763
I129
s(S'MotionManner'
p764
S'flip(banana,center(banana))'
p765
Vturn the banana
p766
tp767
I251
s(S'RotDir'
p768
I1
g217
tp769
I195
s(S'RotSpeed'
p770
F11.56345
g367
tp771
I270
s(S'MotionManner'
p772
S'spin(cup)'
p773
g160
tp774
I197
s(S'RotAxis'
p775
S'Y'
p776
g31
tp777
I497
s(S'TranslocDir'
p778
(F0.2456479
F-0.2478776
F0.474156
tp779
g467
tp780
I15
s(S'RotSpeed'
p781
F11.14164
g346
tp782
I259
s(S'MotionManner'
p783
S'flip(book,center(book))'
p784
g550
tp785
I77
s(S'MotionManner'
p786
S'roll(ball)'
p787
Vturn the ball
p788
tp789
I182
s(S'RotSpeed'
p790
F1.464742
g52
tp791
I209
s(S'RotSpeed'
p792
F0.1742154
Vspin the ball
p793
tp794
I382
s(S'RelOffset'
p795
(F-0.5355343
F0.296931
F-0.01599199
tp796
g35
tp797
I100
s(S'TranslocSpeed'
p798
F0.82304
g258
tp799
I140
s(S'TranslocDir'
p800
(F0.0
F0.2389672
F0.0
tp801
g56
tp802
I358
s(S'RotAngle'
p803
F57.5139
g235
tp804
I154
s(S'PlacementOrder'
p805
S'knife,pencil'
p806
g597
tp807
I150
s(S'MotionManner'
p808
S'turn(grape)'
p809
g201
tp810
I114
s(S'RotAxis'
p811
S'Y'
p812
g317
tp813
I404
s(S'RotAngle'
p814
F148.0438
g501
tp815
I203
s(S'TranslocSpeed'
p816
F4.369549
g15
tp817
I329
s(S'RotSpeed'
p818
F4.4922
g262
tp819
I104
s(S'SymmetryAxis'
p820
S'Y'
p821
g81
tp822
I502
s(S'TranslocDir'
p823
(F0.3404832
F0.0
F-0.2169268
tp824
g537
tp825
I467
s(S'MotionManner'
p826
S'move(disc)'
p827
g51
tp828
I11
s(S'RotAngle'
p829
F-500.9829
g573
tp830
I396
s(S'TranslocDir'
p831
(F0.0
F0.3566332
F0.0
tp832
Vlift the apple
p833
tp834
I338
s(S'RelOffset'
p835
(F-0.296109
F-0.05980802
F-0.3785043
tp836
g49
tp837
I135
s(S'MotionSpeed'
p838
F4.055794
Vclose the book
p839
tp840
I5
s(S'RotSpeed'
p841
F10.21198
g28
tp842
I411
s(S'TranslocSpeed'
p843
F3.473155
g50
tp844
I345
s(S'MotionManner'
p845
S'move(cork)'
p846
g66
tp847
I21
s(S'RotAngle'
p848
F29.2304
g367
tp849
I266
s(S'RotAngle'
p850
F470.1736
g624
tp851
I392
s(S'RotDir'
p852
I1
g576
tp853
I445
s(S'TranslocSpeed'
p854
F2.263133
g299
tp855
I58
s(S'TranslocSpeed'
p856
F4.263702
Vlift the banana
p857
tp858
I343
s(S'TranslocDir'
p859
(F0.0
F0.353132
F0.0
tp860
g50
tp861
I346
s(S'TranslocSpeed'
p862
F2.556473
g833
tp863
I337
s(S'RotDir'
p864
I1
g377
tp865
I138
s(S'RotSpeed'
p866
F7.500051
Vturn the apple
p867
tp868
I244
s(S'RotAxis'
p869
S'Z'
p870
Vflip the bottle at center
p871
tp872
I504
s(S'SymmetryAxis'
p873
S'X'
p874
g766
tp875
I252
s(S'RotAxis'
p876
S'X'
p877
g76
tp878
I172
s(S'TranslocSpeed'
p879
F1.34657
Vlift the knife
p880
tp881
I353
s(S'RotSpeed'
p882
F4.377734
g198
tp883
I72
s(S'SymmetryAxis'
p884
S'Y'
p885
g134
tp886
I276
s(S'RotDir'
p887
I1
g72
tp888
I377
s(S'TranslocDir'
p889
(F0.0
F0.1626775
F-2.980232e-08
tp890
Vlift the knife
p891
tp892
I356
s(S'TranslocDir'
p893
(F-2.204277
F-0.247766
F0.2962722
tp894
Vopen the cup
p895
tp896
I17
s(S'SymmetryAxis'
p897
S'Y'
p898
g321
tp899
I50
s(S'RotAngle'
p900
F43.10715
g60
tp901
I211
s(S'RotAxis'
p902
S'Y'
p903
g77
tp904
I386
s(S'RotSpeed'
p905
F8.240101
g60
tp906
I214
s(S'MotionManner'
p907
S'spin(grape)'
p908
g23
tp909
I231
s(S'MotionManner'
p910
S'lift(block3)'
p911
g122
tp912
I33
s(S'RotAngle'
p913
F83.1692
g309
tp914
I6
s(S'RotDir'
p915
I1
Vturn the block
p916
tp917
I176
s(S'TranslocSpeed'
p918
F0.3100747
g83
tp919
I74
s(S'MotionSpeed'
p920
F3.961755
g51
tp921
I13
s(S'TranslocDir'
p922
(F0.0
F0.5842781
F0.0
tp923
g565
tp924
I306
s(S'RotSpeed'
p925
F7.80068
g482
tp926
I254
s(S'RotAngle'
p927
F142.6505
g916
tp928
I174
s(S'TranslocDir'
p929
(F0.01696574
F0.0
F-0.8589599
tp930
g80
tp931
I400
s(S'MotionManner'
p932
S'put(cup,on(pencil))'
p933
g61
tp934
I57
s(S'TranslocDir'
p935
(F0.0
F0.8821914
F0.0
tp936
g746
tp937
I332
s(S'RotSpeed'
p938
F11.67634
g72
tp939
I376
s(S'RotSpeed'
p940
F6.101655
g374
tp941
I54
s(S'MotionManner'
p942
S'lean(paper_sheet,against(pencil))'
p943
g289
tp944
I284
s(S'MotionManner'
p945
S'turn(apple)'
p946
g47
tp947
I118
s(S'RotAxis'
p948
S'Y'
p949
g40
tp950
I449
s(S'RotSpeed'
p951
F10.31045
g515
tp952
I84
s(S'RotDir'
p953
I1
g82
tp954
I224
s(S'MotionManner'
p955
S'put(grape,near(apple))'
p956
g67
tp957
I107
s(S'RotAngle'
p958
F118.2695
g867
tp959
I243
s(S'RotSpeed'
p960
F9.800671
g521
tp961
I436
s(S'TranslocSpeed'
p962
F1.154915
g198
tp963
I70
s(S'RotSpeed'
p964
F11.53642
g160
tp965
I199
s(S'RotSpeed'
p966
F9.421745
g24
tp967
I69
s(S'RotSpeed'
p968
F6.107067
g79
tp969
I460
s(S'RotAxis'
p970
S'X'
p971
g34
tp972
I280
s(S'RotAngle'
p973
F-275.4545
g278
tp974
I428
s(S'RotSpeed'
p975
F10.58038
g916
tp976
I175
s(S'SymmetryAxis'
p977
S'Y'
p978
g84
tp979
I494
s(S'RotAxis'
p980
S'Z'
p981
Vflip the book on edge
p982
tp983
I484
s(S'RotAxis'
p984
S'Z'
p985
g411
tp986
I111
s(S'TranslocSpeed'
p987
F1.90953
Vlift the bottle
p988
tp989
I327
s(S'MotionManner'
p990
S'roll(ball)'
p991
g479
tp992
I379
s(S'RotSpeed'
p993
F1.09645
Vspin the block
p994
tp995
I374
s(S'TranslocDir'
p996
(F0.0
F0.756135
F0.0
tp997
g93
tp998
I296
s(S'TranslocDir'
p999
(F-0.05491841
F0.0
F0.784187
tp1000
g643
tp1001
I44
s(S'RotAxis'
p1002
S'Y'
p1003
g283
tp1004
I425
s(S'RotDir'
p1005
I-1
g177
tp1006
I474
s(S'RotDir'
p1007
I-1
g62
tp1008
I441
s(S'SymmetryAxis'
p1009
S'X'
p1010
g31
tp1011
I496
s(S'RotSpeed'
p1012
F7.054039
g716
tp1013
I415
s(S'TranslocDir'
p1014
(F0.433338
F8.106232e-05
F-0.1310182
tp1015
g67
tp1016
I108
s(S'TranslocDir'
p1017
(F0.0
F0.7400949
F0.0
tp1018
g664
tp1019
I64
s(S'MotionSpeed'
p1020
F2.390957
g78
tp1021
I1
s(S'RotSpeed'
p1022
F11.87826
g269
tp1023
I229
s(S'RotAngle'
p1024
F-533.3856
g414
tp1025
I455
s(S'RotSpeed'
p1026
F11.37481
g352
tp1027
I219
s(S'TranslocDir'
p1028
(F-0.09953053
F0.0
F0.4553957
tp1029
g190
tp1030
I451
s(S'RotAngle'
p1031
F18.1932
Vturn the blackboard
p1032
tp1033
I220
s(S'TranslocSpeed'
p1034
F4.01893
Vlift the paper sheet
p1035
tp1036
I365
s(S'RotAngle'
p1037
F132.2681
g180
tp1038
I93
s(S'TranslocDir'
p1039
(F0.0
F0.079427
F0.0
tp1040
g857
tp1041
I344
s(S'RotSpeed'
p1042
F1.716118
g40
tp1043
I447
s(S'SymmetryAxis'
p1044
S'Y'
p1045
g221
tp1046
I227
s(S'TranslocSpeed'
p1047
F2.597387
g49
tp1048
I132
s(S'RotAngle'
p1049
F105.25
g657
tp1050
I235
s(S'TranslocSpeed'
p1051
F2.603278
g664
tp1052
I62
s(S'MotionSpeed'
p1053
F3.936836
g895
tp1054
I18
s(S'RotAxis'
p1055
S'Y'
p1056
g23
tp1057
I233
s(S'MotionManner'
p1058
S'stack(knife,pencil)'
p1059
g597
tp1060
I149
s(S'TranslocDir'
p1061
(F0.0
F0.3662255
F0.0
tp1062
g437
tp1063
I334
s(S'RotAxis'
p1064
S'Y'
p1065
Vturn the paper sheet
p1066
tp1067
I282
s(S'TranslocSpeed'
p1068
F3.073225
g111
tp1069
I299
s(S'TranslocDir'
p1070
(F-0.4367229
F0.0
F0.5959383
tp1071
Vspin the grape
p1072
tp1073
I432
s(S'TranslocDir'
p1074
(F-0.5544455
F0.0
F-0.833585
tp1075
g71
tp1076
I157
s(S'RotAxis'
p1077
S'Z'
p1078
g414
tp1079
I458
s(S'TranslocDir'
p1080
(F-0.07324531
F0.0
F-0.656705
tp1081
g55
tp1082
I188
s(S'RotAngle'
p1083
F170.9972
g19
tp1084
I125
s(S'RotAxis'
p1085
S'X'
p1086
Vflip the book on edge
p1087
tp1088
I485
s(S'SymmetryAxis'
p1089
S'X'
p1090
g33
tp1091
I477
s(S'TranslocDir'
p1092
(F0.0
F0.321532
F0.0
tp1093
g37
tp1094
I288
s(S'RotAxis'
p1095
S'X'
p1096
g39
tp1097
I490
s(S'RotDir'
p1098
I-1
g573
tp1099
I398
s(S'MotionManner'
p1100
S'slide(pencil)'
p1101
g71
tp1102
I156
s(S'MotionManner'
p1103
S'flip(plate,edge(plate))'
p1104
g321
tp1105
I48
s(S'SymmetryAxis'
p1106
S'Y'
p1107
Vflip the book at center
p1108
tp1109
I500
s(S'TranslocDir'
p1110
(F0.0
F1.143364
F0.0
tp1111
g87
tp1112
I304
s(S'TranslocSpeed'
p1113
F3.326786
Vlift the bowl
p1114
tp1115
I347
s(S'RotDir'
p1116
I1
g515
tp1117
I82
s(S'MotionManner'
p1118
S'lean(knife,against(cup))'
p1119
g235
tp1120
I152
s(S'RotSpeed'
p1121
F8.043883
g62
tp1122
I440
s(S'RotAngle'
p1123
F525.2396
g793
tp1124
I381
s(S'TranslocDir'
p1125
(F-0.2124754
F0.0
F0.8476102
tp1126
g25
tp1127
I257
s(S'SymmetryAxis'
p1128
S'Z'
p1129
g34
tp1130
I281
s(S'MotionManner'
p1131
S'turn(front_cover)'
p1132
g38
tp1133
I3
s(S'RotSpeed'
p1134
F11.6837
g487
tp1135
I417
s(S'RotDir'
p1136
I1
g867
tp1137
I245
s(S'TranslocDir'
p1138
(F0.0
F0.3125811
F0.0
tp1139
g22
tp1140
I292
s(S'TranslocDir'
p1141
(F-0.3933919
F0.0
F0.9564747
tp1142
g26
tp1143
I420
s(S'RotDir'
p1144
I-1
g278
tp1145
I430
s(S'TranslocSpeed'
p1146
F2.018482
g244
tp1147
I289
s(S'RotAxis'
p1148
S'Y'
p1149
g352
tp1150
I218
s(S'RotAxis'
p1151
S'Y'
p1152
g24
tp1153
I68
s(S'MotionManner'
p1154
S'turn(banana)'
p1155
g19
tp1156
I126
s(S'RotSpeed'
p1157
F0.4352629
g420
tp1158
I239
s(S'TranslocSpeed'
p1159
F1.465531
g22
tp1160
I291
s(S'MotionManner'
p1161
S'lean(blackboard,on(bottle))'
p1162
g180
tp1163
I91
s(S'MotionManner'
p1164
S'lean(knife,on(cup))'
p1165
g75
tp1166
I144
s(S'TranslocDir'
p1167
(F0.0
F0.4188087
F-2.980232e-08
tp1168
g880
tp1169
I354
s(S'RotAxis'
p1170
S'X'
p1171
g16
tp1172
I241
s(S'MotionSpeed'
p1173
F3.070723
Vclose the cup
p1174
tp1175
I14
s(S'MotionManner'
p1176
S'stack(paper_sheet,bowl)'
p1177
g349
tp1178
I169
s(S'TranslocDir'
p1179
(F5.960464e-08
F0.9027908
F2.980232e-08
tp1180
g30
tp1181
I326
s(S'RotAxis'
p1182
S'X'
p1183
g708
tp1184
I480
s(S'RotSpeed'
p1185
F1.739825
g27
tp1186
I469
s(S'MotionManner'
p1187
S'spin(knife)'
p1188
g367
tp1189
I267
s(S'MotionManner'
p1190
S'roll(disc)'
p1191
g80
tp1192
I399
s(S'TranslocDir'
p1193
(F0.0
F1.574505
F0.0
tp1194
Vlift the blackboard
p1195
tp1196
I322
s(S'TranslocSpeed'
p1197
F3.25881
g32
tp1198
I363
s(S'RotAxis'
p1199
S'Z'
p1200
g550
tp1201
I78
s(S'SymmetryAxis'
p1202
S'Y'
p1203
g982
tp1204
I483
s(S'MotionManner'
p1205
S'lean(disc,on(grape))'
p1206
g198
tp1207
I71
s(S'MotionManner'
p1208
S'roll(grape)'
p1209
g18
tp1210
I426
s(S'TranslocSpeed'
p1211
F3.62548
g67
tp1212
I106
s(S'PlacementOrder'
p1213
S'ball,blackboard'
p1214
g208
tp1215
I96
s(S'TranslocSpeed'
p1216
F0.5991256
g58
tp1217
I297
s(S'TranslocSpeed'
p1218
F3.958493
g37
tp1219
I287
s(S'RotAngle'
p1220
F-216.8074
g62
tp1221
I439
s(S'MotionManner'
p1222
S'put(bottle,near(cork))'
p1223
g35
tp1224
I98
s(S'MotionManner'
p1225
S'put(block3,on(pencil))'
p1226
g20
tp1227
I31
s(S'TranslocDir'
p1228
(F0.5413572
F0.0
F0.03848431
tp1229
g88
tp1230
I391
s(S'MotionManner'
p1231
S'roll(pencil)'
p1232
g401
tp1233
I161
s(S'RotDir'
p1234
I1
g47
tp1235
I119
s(S'RotDir'
p1236
I-1
g73
tp1237
I37
s(S'RotSpeed'
p1238
F12.22345
g289
tp1239
I286
s(S'RotDir'
p1240
I1
g262
tp1241
I103
s(S'RotAxis'
p1242
S'Y'
p1243
g521
tp1244
I438
s(S'TranslocDir'
p1245
(F0.0
F1.101034
F0.0
tp1246
Vlift the ball
p1247
tp1248
I294
s(S'TranslocSpeed'
p1249
F0.6532902
g374
tp1250
I51
s(S'TranslocSpeed'
p1251
F2.111848
g64
tp1252
I319
s(S'RotDir'
p1253
I1
g19
tp1254
I127
s(S'TranslocDir'
p1255
(F-1.490116e-08
F0.9586782
F-2.328306e-10
tp1256
g64
tp1257
I320
s(S'TranslocDir'
p1258
(F0.0
F0.4945719
F0.0
tp1259
g727
tp1260
I340
s(S'TranslocDir'
p1261
(F0.0
F0.9953394
F0.0
tp1262
g988
tp1263
I328
s(S'RotSpeed'
p1264
F0.47324
g1032
tp1265
I221
s(S'RotDir'
p1266
I-1
g487
tp1267
I418
s(S'TranslocSpeed'
p1268
F4.177973
g74
tp1269
I335
s(S'RotAxis'
p1270
S'Y'
p1271
g624
tp1272
I395
s(S'MotionManner'
p1273
S'roll(block3)'
p1274
g63
tp1275
I367
s(S'MotionManner'
p1276
S'flip(cup,edge(cup))'
p1277
g17
tp1278
I190
s(S'RotSpeed'
p1279
F11.25723
g624
tp1280
I393
s(S'TranslocDir'
p1281
(F0.0
F0.1293831
F0.0
tp1282
g1035
tp1283
I366
s(S'RotAngle'
p1284
F165.2171
g47
tp1285
I117
s(S'MotionManner'
p1286
S'put(disc,on(cup))'
p1287
g21
tp1288
I9
s(S'MotionManner'
p1289
S'lift(plate)'
p1290
g48
tp1291
I46
s(S'TranslocSpeed'
p1292
F2.25689
g891
tp1293
I355
s(S'TranslocSpeed'
p1294
F2.655697
g48
tp1295
I45
s(S'TranslocSpeed'
p1296
F1.001014
g1195
tp1297
I321
s(S'RotAxis'
p1298
S'Z'
p1299
g29
tp1300
I506
s(S'RotDir'
p1301
I1
g45
tp1302
I202
s(S'RotAngle'
p1303
F455.9153
g994
tp1304
I373
s(S'TranslocSpeed'
p1305
F4.495313
g1247
tp1306
I293
s(S'MotionManner'
p1307
S'roll(paper_sheet)'
p1308
g248
tp1309
I475
s(S'RotAxis'
p1310
S'X'
p1311
g443
tp1312
I206
s(S'RotAngle'
p1313
F307.9375
g312
tp1314
I463
s(S'MotionManner'
p1315
S'lift(pencil)'
p1316
g453
tp1317
I159
s(S'MotionSpeed'
p1318
F4.637863
g21
tp1319
I10
s(S'TranslocDir'
p1320
(F0.03421471
F0.0
F-0.5164917
tp1321
Vturn the plate
p1322
tp1323
I189
s(S'RotAngle'
p1324
F-356.0343
g521
tp1325
I435
s(S'RotAngle'
p1326
F14.96508
g73
tp1327
I35
s(S'TranslocDir'
p1328
(F0.0
F0.4718959
F0.0
tp1329
Vlift the bowl
p1330
tp1331
I350
s(S'TranslocSpeed'
p1332
F0.1985139
g61
tp1333
I56
s(S'RotAngle'
p1334
F177.1022
g46
tp1335
I179
s(S'RotAxis'
p1336
S'Y'
p1337
g278
tp1338
I431
s(S'MotionManner'
p1339
S'lean(ball,against(disc))'
p1340
g195
tp1341
I185
s(S'RotAxis'
p1342
S'Z'
p1343
g221
tp1344
I226
s(S'RotAxis'
p1345
S'Y'
p1346
g53
tp1347
I249
s(S'TranslocDir'
p1348
(F0.1732439
F0.0
F0.5994176
tp1349
g356
tp1350
I122
s(S'TranslocDir'
p1351
(F-0.4896523
F0.0
F-0.3770692
tp1352
g788
tp1353
I183
s(S'TranslocDir'
p1354
(F0.0
F0.7492812
F0.0
tp1355
g58
tp1356
I298
s(S'RotAxis'
p1357
S'X'
p1358
g426
tp1359
I130
s(S'TranslocDir'
p1360
(F0.4266845
F-0.2479575
F-0.3680093
tp1361
g51
tp1362
I12
s(S'MotionManner'
p1363
S'flip(disc,center(disc))'
p1364
g443
tp1365
I205
s(S'RotAxis'
p1366
S'X'
p1367
g81
tp1368
I503
s(S'RotAngle'
p1369
F-500.0562
g77
tp1370
I383
s(S'RotDir'
p1371
I1
g41
tp1372
I273
s(S'RotDir'
p1373
I-1
g367
tp1374
I268
s(S'MotionManner'
p1375
S'flip(block3,edge(block3))'
p1376
g76
tp1377
I171
s(S'RotDir'
p1378
I-1
g352
tp1379
I217
s(S'RotDir'
p1380
I-1
g70
tp1381
I165
s(S'SymmetryAxis'
p1382
S'Y'
p1383
g17
tp1384
I192
s(S'RotAngle'
p1385
F-313.8578
g555
tp1386
I452
s(S'RotSpeed'
p1387
F9.886058
g555
tp1388
I453
s(S'RotAngle'
p1389
F246.573
g40
tp1390
I446
s(S'TranslocSpeed'
p1391
F3.885224
g30
tp1392
I325
s(S'TranslocDir'
p1393
(F0.0
F0.7130713
F0.0
tp1394
g14
tp1395
I314
s(S'TranslocDir'
p1396
(F1.405521
F-0.6458685
F-0.6969199
tp1397
g640
tp1398
I28
s(S'SymmetryAxis'
p1399
S'Z'
p1400
g381
tp1401
I498
s(S'RotAngle'
p1402
F517.8762
g27
tp1403
I468
s(S'RotAngle'
p1404
F-369.2608
g177
tp1405
I472
s(S'SymmetryAxis'
p1406
S'Y'
p1407
g54
tp1408
I492
s(S'TranslocDir'
p1409
(F0.0
F0.6804185
F0.0
tp1410
g1114
tp1411
I348
s(S'TranslocSpeed'
p1412
F3.073483
g56
tp1413
I357
s(S'RotDir'
p1414
I1
g28
tp1415
I412
s(S'MotionManner'
p1416
S'roll(cup)'
p1417
g88
tp1418
I390
s(S'TranslocDir'
p1419
(F0.2033113
F-0.6456926
F-0.8723536
tp1420
g370
tp1421
I25
s(S'RotAngle'
p1422
F172.9296
g52
tp1423
I208
s(S'TranslocDir'
p1424
(F0.0
F0.8144827
F0.0
tp1425
g755
tp1426
I318
s(S'RotAngle'
p1427
F60.71206
g75
tp1428
I147
s(S'RotSpeed'
p1429
F2.762628
g45
tp1430
I201
s(S'RotAxis'
p1431
S'Y'
p1432
g119
tp1433
I372
s(S'RotAngle'
p1434
F177.0017
g151
tp1435
I261
s(S'RotAngle'
p1436
F113.2507
g45
tp1437
I200
s(S'RotAngle'
p1438
F475.4943
g119
tp1439
I369
s(S'RotDir'
p1440
I1
g27
tp1441
I470
s(S'RotSpeed'
p1442
F11.30936
g73
tp1443
I39
s(S'RotDir'
p1444
I1
g374
tp1445
I53
s(S'RotAxis'
p1446
S'Z'
p1447
g1108
tp1448
I501
s(S'RotAngle'
p1449
F90.0
g374
tp1450
I55
s(S'RotDir'
p1451
I1
g482
tp1452
I255
s(S'TranslocSpeed'
p1453
F2.853587
g1330
tp1454
I349
s(S'TranslocDir'
p1455
(F0.0
F0.7373235
F0.0
tp1456
g743
tp1457
I360
s(S'TranslocDir'
p1458
(F0.04749555
F0.0
F-0.4238628
tp1459
g59
tp1460
I434
s(S'TranslocSpeed'
p1461
F2.274046
g208
tp1462
I94
ssS'_length'
p1463
I507
sS'_unseen'
p1464
NsS'_alwayson'
p1465
NsbsS'_weights'
p1466
cnumpy.core.multiarray
_reconstruct
p1467
(cnumpy
ndarray
p1468
(I0
tp1469
S'b'
p1470
tp1471
Rp1472
(I1
(I508
tp1473
cnumpy
dtype
p1474
(S'f8'
p1475
I0
I1
tp1476
Rp1477
(I3
S'<'
p1478
NNNI-1
I-1
I0
tp1479
bI00
S':e)\x15~g\x12@aN5^l2\x14@\xb1\xa93-\xd5l\x0c@\x9a\xa4\xea-\xee@\x07@\xb1\xa93-\xd5l\x0c@aN5^l2\x14@\xb1\xa93-\xd5l\x0c@\xb1\xa93-\xd5l\x0c@aN5^l2\x14@\x11\xf6\x00\xd5\xdc4\x13@\x0f\xf6\x00\xd5\xdc4\x13@R\x18\x02^J\x1a\n@W\x18\x02^J\x1a\n@W\x18\x02^J\x1a\n@\x0f\xf6\x00\xd5\xdc4\x13@W\x18\x02^J\x1a\n@W\x18\x02^J\x1a\n@W\x18\x02^J\x1a\n@W\x18\x02^J\x1a\n@\xd9\xf5\x00\xd5\xdc4\x13@\xd9\xf5\x00\xd5\xdc4\x13@\xfe\x18\x02^J\x1a\n@\x02\x19\x02^J\x1a\n@\x02\x19\x02^J\x1a\n@\xd9\xf5\x00\xd5\xdc4\x13@\x02\x19\x02^J\x1a\n@\x02\x19\x02^J\x1a\n@\xd9\xf5\x00\xd5\xdc4\x13@\x02\x19\x02^J\x1a\n@\x02\x19\x02^J\x1a\n@\x13\xf6\x00\xd5\xdc4\x13@\x13\xf6\x00\xd5\xdc4\x13@\xb7\x18\x02^J\x1a\n@\xb7\x18\x02^J\x1a\n@\xb7\x18\x02^J\x1a\n@:\x14\x1f\xfb8x\x06@:\x14\x1f\xfb8x\x06@\x82\xc7\xd2D\xe9\x80\xeb?\xd3\x8b\x1bG\xdc?\xfa?:\x14\x1f\xfb8x\x06@`\xff>h\xb9\xe2\x19@\xa5\xe0\x1b\xe0\xb4\x17\x08@\x10\x18\x02^J\x1a\n@\x10\x18\x02^J\x1a\n@\x10\x18\x02^J\x1a\n@`\x18\x02^J\x1a\n@`\x18\x02^J\x1a\n@`\x18\x02^J\x1a\n@rs\xe9\xac\x899!@\xfb\xc2\x1dq\xd0\xbe\xf9?\xb3\xcb\xec\xa9\tR\xf7?\x82\xc9\x0b\xdcb\xb6\x04@\x82\xc9\x0b\xdcb\xb6\x04@|\xc8dWS\x99\xcb?\x82\xc9\x0b\xdcb\xb6\x04@).e\xf8\xe2\x95\x01@9\xf6\x00\xd5\xdc4\x13@9\xf6\x00\xd5\xdc4\x13@m4\x92)r\x99\x03@m4\x92)r\x99\x03@m4\x92)r\x99\x03@m4\x92)r\x99\x03@\n\x19\x02^J\x1a\n@\n\x19\x02^J\x1a\n@\n\x19\x02^J\x1a\n@q\x12\xbc\'\x12~\x07@q\x12\xbc\'\x12~\x07@=I\x95\xce\xa1\xef\xf8?"\xbc\xf0\x055F\xde?q\x12\xbc\'\x12~\x07@!\x8cr\xfe\xa3/\x02@!\x8cr\xfe\xa3/\x02@!\x8cr\xfe\xa3/\x02@r\x93fs\xa4\x1d\xff?\xc9\x18\x02^J\x1a\n@\xc9\x18\x02^J\x1a\n@\xc9\x18\x02^J\x1a\n@\xdc\x9aS\xf0\x18\x00\x1d@@n&O\x04\x1c\x04@\xcc\x17&\x94\x7fs\x07@\xb3\xab\x83\x13\xa5\xfa\t@\xb3\xab\x83\x13\xa5\xfa\t@N\xb6h\x9b\xf4\xfa\xdf?E\xe3(\x12\xf6\x8c\xd1?\xb3\xab\x83\x13\xa5\xfa\t@^\xc8\x06+2\xcc\x02@^\xc8\x06+2\xcc\x02@\x02\xbc`)C\x9d\xe8?^\xc8\x06+2\xcc\x02@^\xc8\x06+2\xcc\x02@^\xc8\x06+2\xcc\x02@^\xc8\x06+2\xcc\x02@^\xc8\x06+2\xcc\x02@^\xc8\x06+2\xcc\x02@)\x18\x02^J\x1a\n@)\x18\x02^J\x1a\n@)\x18\x02^J\x1a\n@\xf93\x92)r\x99\x03@\xf93\x92)r\x99\x03@\xf93\x92)r\x99\x03@\xf93\x92)r\x99\x03@@]\xa7,E\x90\x04@@]\xa7,E\x90\x04@\xd4\xf9\xe2\x99\x90\xf0\xce?@]\xa7,E\x90\x04@\ni\xf5y\x00\x97\x02@d4\x92)r\x99\x03@d4\x92)r\x99\x03@d4\x92)r\x99\x03@d4\x92)r\x99\x03@\x13\xd9F\x11V\xab\x1c@\x98\x95#`>\x1c\x03@\xf1\xfa4\xc1\xf3<\t@Cd%b\xcb\x92\t@Cd%b\xcb\x92\t@\xb2\xd5\x9a\x9a\'I\xe2?Cd%b\xcb\x92\t@wd%b\xcb\x92\t@wd%b\xcb\x92\t@e\xd6\x9a\x9a\'I\xe2?wd%b\xcb\x92\t@;G\xe0\xd8\xf9\xc0\x11@\xd8\xf0M\x8e\x92<\x15@E\xf6\x00\xd5\xdc4\x13@E\xf6\x00\xd5\xdc4\x13@\xd5\xe4\x93F/\x9e\t@\xd5\xe4\x93F/\x9e\t@\xd9\xfc\x12+1\x81\xe1?\xd5\xe4\x93F/\x9e\t@/\x19\xfd\xfe\xdc(\x1b@\x84\x97|\xc1<T\xf8?\x88\x14\xfdk\xcd\x97\t@\x8c4\x92)r\x99\x03@\x8c4\x92)r\x99\x03@\x8c4\x92)r\x99\x03@\x8c4\x92)r\x99\x03@wd%b\xcb\x92\t@wd%b\xcb\x92\t@i\xd6\x9a\x9a\'I\xe2?wd%b\xcb\x92\t@&\x19\x02^J\x1a\n@&\x19\x02^J\x1a\n@&\x19\x02^J\x1a\n@\x15\xc9\x06+2\xcc\x02@\x15\xc9\x06+2\xcc\x02@w\xbe`)C\x9d\xe8?\x15\xc9\x06+2\xcc\x02@\x15\xc9\x06+2\xcc\x02@\xeb\x18\x02^J\x1a\n@\xeb\x18\x02^J\x1a\n@\xeb\x18\x02^J\x1a\n@\x15\xc9\x06+2\xcc\x02@\x15\xc9\x06+2\xcc\x02@\x15\xc9\x06+2\xcc\x02@\x15\xc9\x06+2\xcc\x02@\xeb\x18\x02^J\x1a\n@\xeb\x18\x02^J\x1a\n@\xeb\x18\x02^J\x1a\n@\xeb\x18\x02^J\x1a\n@\xeb\x18\x02^J\x1a\n@\xeb\x18\x02^J\x1a\n@\rG\xe0\xd8\xf9\xc0\x11@\xba\xf0M\x8e\x92<\x15@\xce\xc1:\xcb\xe0\xf9\x07@\xce\xc1:\xcb\xe0\xf9\x07@M2}6^\x82\xf4?C>\xb8\xc5qZ\xe2?\xce\xc1:\xcb\xe0\xf9\x07@\xec\x18\x02^J\x1a\n@\xec\x18\x02^J\x1a\n@\xec\x18\x02^J\x1a\n@D\xbc!F\x95n\x1c@\xb4\xa8ymj\xb9\xf6?\xa7\xa6\x91\xbb\xde\x9e\x08@\xb8\xe9\x11\x06\xfd\xe1\x10@\xb8\xe9\x11\x06\xfd\xe1\x10@4\xb4\xe0\xa5\x99\xcc\xfb?\xb8\xe9\x11\x06\xfd\xe1\x10@\xb8\xe9\x11\x06\xfd\xe1\x10@\xf9a\xa0\x98\x97O\x11@\xf9a\xa0\x98\x97O\x11@ \x1f|\xaf\x10i\xf7?*G\xe0\xd8\xf9\xc0\x11@\xd8\xf0M\x8e\x92<\x15@\x85/\xa7\x89H\xa7\x07@\x85/\xa7\x89H\xa7\x07@\x85/\xa7\x89H\xa7\x07@\xc8\xf5\x00\xd5\xdc4\x13@\xc9\xf5\x00\xd5\xdc4\x13@\xc9\xf5\x00\xd5\xdc4\x13@\x9alZO_<!@LkC\xc7\x15m\xf9?\xecJ\xd5\xf49\x8c\xf7?\x98\xfa\x14s/\x82\x11@\x98\xfa\x14s/\x82\x11@\xe4\x81\xb9\x8d\x94k\xf5?\xac5\x96\x1d\xac\xd8\x07@\xac5\x96\x1d\xac\xd8\x07@\x9e\xf1A\x0e[\xda\xdf?\xac5\x96\x1d\xac\xd8\x07@\x18\xd5\x8d4A\xe2\x10@\x18\xd5\x8d4A\xe2\x10@@\xfa\x04;\xcf\xc6\xfb?\x18\xd5\x8d4A\xe2\x10@\x18\xd5\x8d4A\xe2\x10@\xd7\x87K\xd7\xbc=!@\xf0\x01W9\xdeE\xf9?\x8e\xa7\x95\x93)\xa7\xf7?\t1^\x130\xf4\x11@\t1^\x130\xf4\x11@)\xdfg$6\xfe\xf1?\x1b\xe6\'\xa6g\xa8\x08@\x1b\xe6\'\xa6g\xa8\x08@PO\xa7\x19\xbc^\xee?\x1b\xe6\'\xa6g\xa8\x08@\xc5y\xa4\xaaTG\x07@0\n\xa87\x98_\x07@\xb8X\xc3\x85\xf5x\xf1?\xbda\x05I\xb7V\xf0?\xc5y\xa4\xaaTG\x07@\xf2\xbe\xd7\xdf\x04x\x07@\xf2\xbe\xd7\xdf\x04x\x07@\xd2"\xb2\x8dA\xda\x10@\xd2"\xb2\x8dA\xda\x10@ub\xc8n\xd5&\xfc?\xc7\x92vl\xd0\x03 @\xfb\xfdR\xcc\xe8\x8a\x03@\x97X3U\xed\x97\xf6?\xd2"\xb2\x8dA\xda\x10@\xd2"\xb2\x8dA\xda\x10@ti\x1c\'\xa8v\x07@ti\x1c\'\xa8v\x07@2\xad\xd4C\xa1.\xf9?/T\xc5\xd3\xb9\xff\xd9?ti\x1c\'\xa8v\x07@\xa3G\x11Q-\x14\x11@\xa3G\x11Q-\x14\x11@9C\xdbd\xa9o\x05@f\xefk\x15RP\x08@f\xefk\x15RP\x08@i^EBC;!@\xa2\x90\xcd\xf5A\x8d\xf9?\xe69\xd5Z0t\xf7?\xd5\x8a\xdc\xedR\xfe\x11@\xd5\x8a\xdc\xedR\xfe\x11@~\x1e\x0f\n>\x88\xf1?F\xa1b\xf7t\x92\x06@F\xa1b\xf7t\x92\x06@<\x8f\x98-pt\xec?\xce\x92WH\x1e\xd1\xf8?F\xa1b\xf7t\x92\x06@\x17\xd9\xdd\xc2\\e\x19@\n\x19+Vs\x14\n@\x0e\r\x11)\xabz\x12@\x0e\r\x11)\xabz\x12@:{\\&n@\xe8?\xe6F\xe0\xd8\xf9\xc0\x11@q\xf0M\x8e\x92<\x15@\x87"\xb2\x8dA\xda\x10@\x87"\xb2\x8dA\xda\x10@\x89a\xc8n\xd5&\xfc?\x87"\xb2\x8dA\xda\x10@\x87"\xb2\x8dA\xda\x10@\xa1\xeb\xa4\x9d.)\x12@\xa1\xeb\xa4\x9d.)\x12@\xe8D]\xc9\xf6\xa3\xef?P\xd5\xae>.<\x08@P\xd5\xae>.<\x08@\xf2\xed\xa7\xa7\ru\xf5?{\xc35+\x96\x03\xd8?P\xd5\xae>.<\x08@\xcb\xd4\x8d4A\xe2\x10@\xcb\xd4\x8d4A\xe2\x10@=\xf9\x04;\xcf\xc6\xfb?\xbe\x87K\xd7\xbc=!@\xbf\x01W9\xdeE\xf9?_\xa7\x95\x93)\xa7\xf7?\xcb\xd4\x8d4A\xe2\x10@\xcb\xd4\x8d4A\xe2\x10@\x9eO\xdaZ\x894\x1b@/g\xb2O\xff\xc4\xee?\xe8\xa0\x9e\xb6\x0c\xfb\x0e@\xcf\x1d\x0b\xde\xf4b\x00@$\x88Q\xef\x11\xbc\x07@\xe2\xa9\tt\x11\x85\x0b@)\xdc\x01\xb4\x9bo\xce?\xe2\xa9\tt\x11\x85\x0b@\x00\xf6\x00\xd5\xdc4\x13@\x00\xf6\x00\xd5\xdc4\x13@\x00\xf6\x00\xd5\xdc4\x13@\x00\xf6\x00\xd5\xdc4\x13@Y\xf6\x00\xd5\xdc4\x13@Y\xf6\x00\xd5\xdc4\x13@Y\xf6\x00\xd5\xdc4\x13@Y\xf6\x00\xd5\xdc4\x13@Y\xf6\x00\xd5\xdc4\x13@Y\xf6\x00\xd5\xdc4\x13@;\xf6\x00\xd5\xdc4\x13@;\xf6\x00\xd5\xdc4\x13@;\xf6\x00\xd5\xdc4\x13@;\xf6\x00\xd5\xdc4\x13@;\xf6\x00\xd5\xdc4\x13@;\xf6\x00\xd5\xdc4\x13@\x18\xf6\x00\xd5\xdc4\x13@\x18\xf6\x00\xd5\xdc4\x13@\x18\xf6\x00\xd5\xdc4\x13@\x18\xf6\x00\xd5\xdc4\x13@\x18\xf6\x00\xd5\xdc4\x13@\x18\xf6\x00\xd5\xdc4\x13@0\xf6\x00\xd5\xdc4\x13@0\xf6\x00\xd5\xdc4\x13@0\xf6\x00\xd5\xdc4\x13@0\xf6\x00\xd5\xdc4\x13@b\xf6\x00\xd5\xdc4\x13@b\xf6\x00\xd5\xdc4\x13@b\xf6\x00\xd5\xdc4\x13@b\xf6\x00\xd5\xdc4\x13@b\xf6\x00\xd5\xdc4\x13@b\xf6\x00\xd5\xdc4\x13@3\xf6\x00\xd5\xdc4\x13@3\xf6\x00\xd5\xdc4\x13@3\xf6\x00\xd5\xdc4\x13@3\xf6\x00\xd5\xdc4\x13@3\xf6\x00\xd5\xdc4\x13@3\xf6\x00\xd5\xdc4\x13@\x07\xf6\x00\xd5\xdc4\x13@\x07\xf6\x00\xd5\xdc4\x13@\x07\xf6\x00\xd5\xdc4\x13@\x07\xf6\x00\xd5\xdc4\x13@\x14\xf6\x00\xd5\xdc4\x13@\x14\xf6\x00\xd5\xdc4\x13@\x14\xf6\x00\xd5\xdc4\x13@\x14\xf6\x00\xd5\xdc4\x13@\x14\xf6\x00\xd5\xdc4\x13@\x14\xf6\x00\xd5\xdc4\x13@Z\xf6\x00\xd5\xdc4\x13@Z\xf6\x00\xd5\xdc4\x13@Z\xf6\x00\xd5\xdc4\x13@Z\xf6\x00\xd5\xdc4\x13@Z\xf6\x00\xd5\xdc4\x13@Z\xf6\x00\xd5\xdc4\x13@\x01\xf6\x00\xd5\xdc4\x13@\x01\xf6\x00\xd5\xdc4\x13@\x01\xf6\x00\xd5\xdc4\x13@\x01\xf6\x00\xd5\xdc4\x13@\xf0\xf5\x00\xd5\xdc4\x13@\xf0\xf5\x00\xd5\xdc4\x13@\xf0\xf5\x00\xd5\xdc4\x13@\xf0\xf5\x00\xd5\xdc4\x13@\xf0\xf5\x00\xd5\xdc4\x13@\xf0\xf5\x00\xd5\xdc4\x13@\xf8\xf5\x00\xd5\xdc4\x13@\xf8\xf5\x00\xd5\xdc4\x13@\xf8\xf5\x00\xd5\xdc4\x13@\xf8\xf5\x00\xd5\xdc4\x13@\xf8\xf5\x00\xd5\xdc4\x13@\xf8\xf5\x00\xd5\xdc4\x13@>\xf6\x00\xd5\xdc4\x13@>\xf6\x00\xd5\xdc4\x13@>\xf6\x00\xd5\xdc4\x13@>\xf6\x00\xd5\xdc4\x13@>\xf6\x00\xd5\xdc4\x13@>\xf6\x00\xd5\xdc4\x13@\xd8\xf5\x00\xd5\xdc4\x13@\xd8\xf5\x00\xd5\xdc4\x13@\xd8\xf5\x00\xd5\xdc4\x13@\xd8\xf5\x00\xd5\xdc4\x13@\xdf\xf5\x00\xd5\xdc4\x13@\xdf\xf5\x00\xd5\xdc4\x13@Q\xbf\x8a\x92VJ\x0f@Q\xbf\x8a\x92VJ\x0f@\x1dB\xf8u\xeb\xb6\xf4?w>O\x8d\xac\xb0\xfa?Q\xbf\x8a\x92VJ\x0f@Q\xbf\x8a\x92VJ\x0f@/\xbf\x8a\x92VJ\x0f@/\xbf\x8a\x92VJ\x0f@\xefA\xf8u\xeb\xb6\xf4?I>O\x8d\xac\xb0\xfa?\xe3F\xe0\xd8\xf9\xc0\x11@l\xf0M\x8e\x92<\x15@/\xbf\x8a\x92VJ\x0f@/\xbf\x8a\x92VJ\x0f@\x0b3|\x8c\x06F\x0f@\x0b3|\x8c\x06F\x0f@\xb1\x8e\xd7\xbc\x9d\xa8\xf6?^\x83b=D\x97\xf9?\xab[\x10\x90\xef\xde\x10@\xab[\x10\x90\xef\xde\x10@~\xe7\x07\xaf\xc2\x9e\xe4?\xcb\xf5\x00\xd5\xdc4\x13@\xcb\xf5\x00\xd5\xdc4\x13@7[\x10\x90\xef\xde\x10@7[\x10\x90\xef\xde\x10@9\xe5\x07\xaf\xc2\x9e\xe4?\x17\x82b=D\x97\xf9?\t2|\x8c\x06F\x0f@\t2|\x8c\x06F\x0f@r\x8d\xd7\xbc\x9d\xa8\xf6?%\xf6\x00\xd5\xdc4\x13@$\xf6\x00\xd5\xdc4\x13@\xa5M_X:G\x10@\xa5M_X:G\x10@\x94\xc9s\x99\xa5%\xfc?\x17\xf0\xb37\t\xa1\xed?$\xf6\x00\xd5\xdc4\x13@\x1b\xa2\x92\xde\xd2\x1d\r@\x1b\xa2\x92\xde\xd2\x1d\r@\x83\xe2<c\xe0\xd5\xfd?4\xb0\xea\xba\xb3\x82\xf9?.\x8f\xae\x82\xf3\xd9\x0e@.\x8f\xae\x82\xf3\xd9\x0e@|g\xc5\xb2\x17\xaf\xf3?\x99_~\xa6D_\xfd?.\x8f\xae\x82\xf3\xd9\x0e@.\x8f\xae\x82\xf3\xd9\x0e@\xef\x0f)\x11\xa5\xd5\x0e@\xef\x0f)\x11\xa5\xd5\x0e@\xc0\x8a\xb1\x99T\x8f\xf4?\x0f\xf6\x00\xd5\xdc4\x13@\x0e\xf6\x00\xd5\xdc4\x13@\x0e\xf6\x00\xd5\xdc4\x13@\xe7\x1ed\x7fVT\x11@\xe7\x1ed\x7fVT\x11@\xf2z\xdf\x06\x8c\xe5\xe8? \x0b\xaaC.\xe5\xf3?`\xf6\x00\xd5\xdc4\x13@`\xf6\x00\xd5\xdc4\x13@\xe8M_X:G\x10@\xe8M_X:G\x10@a\xcas\x99\xa5%\xfc?\x92\xf1\xb37\t\xa1\xed?`\xf6\x00\xd5\xdc4\x13@\x1eG\xe0\xd8\xf9\xc0\x11@\xac\xf0M\x8e\x92<\x15@\x9dM_X:G\x10@\x9dM_X:G\x10@\x8a\xc9s\x99\xa5%\xfc?\x0b\xf0\xb37\t\xa1\xed?@2|\x8c\x06F\x0f@@2|\x8c\x06F\x0f@\xb7\x8d\xd7\xbc\x9d\xa8\xf6?Y\x82b=D\x97\xf9?O[\x10\x90\xef\xde\x10@O[\x10\x90\xef\xde\x10@\xaa\xe5\x07\xaf\xc2\x9e\xe4?\xa3[\x10\x90\xef\xde\x10@\xa3[\x10\x90\xef\xde\x10@h\xe7\x07\xaf\xc2\x9e\xe4?Y\x83b=D\x97\xf9?(G\xe0\xd8\xf9\xc0\x11@\xd2\xf0M\x8e\x92<\x15@\t3|\x8c\x06F\x0f@\t3|\x8c\x06F\x0f@\xbb\x8e\xd7\xbc\x9d\xa8\xf6?f\xa1\x92\xde\xd2\x1d\r@f\xa1\x92\xde\xd2\x1d\r@l\xe1<c\xe0\xd5\xfd?5\xaf\xea\xba\xb3\x82\xf9?\xc4\xff\xe8\xcc\xda\xfc\x0b@\xc4\xff\xe8\xcc\xda\xfc\x0b@\xdb\x8c)\xa9\x15q\xfd?\x01\xa4J\x1eNR\xfd?:\xfc\x7f\x9f\xcb\xf2\x0f@:\xfc\x7f\x9f\xcb\xf2\x0f@\xa0R\x9d\xea\xf0\xba\xee?\xd3F\xe0\xd8\xf9\xc0\x11@f\xf0M\x8e\x92<\x15@s[\x10\x90\xef\xde\x10@s[\x10\x90\xef\xde\x10@^\xe6\x07\xaf\xc2\x9e\xe4?\xba\x82b=D\x97\xf9?\x842|\x8c\x06F\x0f@\x842|\x8c\x06F\x0f@\x14\x8e\xd7\xbc\x9d\xa8\xf6?\x0f\xf6\x00\xd5\xdc4\x13@\x0f\xf6\x00\xd5\xdc4\x13@\xef\x96\xe38\xcb\xf0\x17@\xae\xf9\x0f7@=\x08@\x13T\x93\xd9d=\xf7?\x0e\xaf\x1d\xd2\x1b\xf9\x11@\xbab\xe5\xd1YW\x13@\xf3\xc48\xed\xb4\x17\x14@P3\x00\xed\xfd\x18\x13@b\xe3/\xaeO\xe3\x02@\x7fE\xb8mZ\x01\xf1?\x85\x99\x07\x9d\x93\x8d\x08@\xdbf"\xber&\x10@\x93\xee\xdb\x89/\x8b\x0f@jW1\x08\x1d~\x0f@8\xee\xdc&\xbfl\t@\x18\xa5\xd0\x99t\xde\x08@\xa4\xa0\x95hE\xc1\n@\xda\xfa\xd7\\\xe9\xa1\x12@d"\x1ct\x98\xf4\r@\xe0\xdbYV\x87\x83\x0f@M\x17\xf0t\x06\x0c\x11@\xfd\xc8\xc8\x1f\xb8\xef\n@\xfe\x99h5\xcf4\x15@\xccPB\xe3\x044\x00@t\xa7\xda\x1a,\xf0\x05@t\x052T\x0e\xc6\x0c@\xf8\xb1\xe8\x0f \xd3\r@\xe4(\xe7t\xff\x12\x03@\x19\xc4\xba\x82\x1a\x85\n@\xa0W\xa3\x03\x07}\x14@\xa2EF\x7f1\x11\x10@\xade\x87\xe9RR\xe4\xbf'
p1480
tp1481
bsb.