ccopy_reg
_reconstructor
p0
(cnltk.classify.maxent
MaxentClassifier
p1
c__builtin__
object
p2
Ntp3
Rp4
(dp5
S'_logarithmic'
p6
I01
sS'_encoding'
p7
g0
(cnltk.classify.maxent
GISEncoding
p8
g2
Ntp9
Rp10
(dp11
S'_labels'
p12
(lp13
Vopen
p14
aVmove
p15
aVflip
p16
aVturn
p17
aVlift
p18
aVclose
p19
aVspin
p20
asS'_C'
p21
I12
sS'_mapping'
p22
(dp23
(S'RotAngle'
p24
F475.4943
Vspin
p25
tp26
I321
s(S'TranslocDir'
p27
(F0.0
F0.2315049
F0.0
tp28
Vmove
p29
tp30
I34
s(S'RotAngle'
p31
F54.57996
Vturn
p32
tp33
I201
s(S'RotSpeed'
p34
F1.739825
Vspin
p35
tp36
I392
s(S'TranslocDir'
p37
(F0.0
F0.6824667
F0.0
tp38
Vlift
p39
tp40
I264
s(S'TranslocDir'
p41
(F0.0
F0.1906028
F0.0
tp42
Vlift
p43
tp44
I314
s(S'MotionManner'
p45
S'put(apple,on(plate))'
p46
Vmove
p47
tp48
I112
s(S'RelOffset'
p49
(F-0.1703617
F0.1004961
F-0.4135511
tp50
Vmove
p51
tp52
I61
s(S'RotSpeed'
p53
F8.043883
Vspin
p54
tp55
I373
s(S'TranslocSpeed'
p56
F2.018482
Vlift
p57
tp58
I241
s(S'SymmetryAxis'
p59
S'Z'
p60
Vflip
p61
tp62
I401
s(S'TranslocDir'
p63
(F0.703891
F0.000191927
F-0.8785043
tp64
Vmove
p65
tp66
I120
s(S'TranslocDir'
p67
(F0.2456479
F-0.2478776
F0.474156
tp68
Vopen
p69
tp70
I15
s(S'TranslocDir'
p71
(F0.0
F0.7373235
F0.0
tp72
Vlift
p73
tp74
I312
s(S'MotionManner'
p75
S'roll(grape)'
p76
Vspin
p77
tp78
I363
s(S'TranslocSpeed'
p79
F2.655969
Vmove
p80
tp81
I142
s(S'RotSpeed'
p82
F4.909875
Vmove
p83
tp84
I85
s(S'MotionSpeed'
p85
F0.1339239
Vopen
p86
tp87
I26
s(S'RotAngle'
p88
F177.0017
Vturn
p89
tp90
I223
s(S'TranslocSpeed'
p91
F2.684366
Vmove
p92
tp93
I135
s(S'MotionSpeed'
p94
F1.083121
g69
tp95
I16
s(S'RotDir'
p96
I1
g25
tp97
I323
s(S'TranslocSpeed'
p98
F1.154915
Vmove
p99
tp100
I68
s(S'MotionManner'
p101
S'spin(cup)'
p102
Vturn
p103
tp104
I176
s(S'MotionSpeed'
p105
F4.037564
Vopen
p106
tp107
I29
s(S'RotAxis'
p108
S'X'
p109
Vspin
p110
tp111
I386
s(S'RotAngle'
p112
F-313.8578
Vspin
p113
tp114
I380
s(S'TranslocSpeed'
p115
F2.853587
Vlift
p116
tp117
I301
s(S'MotionManner'
p118
S'roll(plate)'
p119
Vturn
p120
tp121
I168
s(S'RotSpeed'
p122
F11.56345
Vturn
p123
tp124
I229
s(S'MotionManner'
p125
S'flip(block3,edge(block3))'
p126
g17
tp127
I153
s(S'MotionManner'
p128
S'turn(front_cover)'
p129
g19
tp130
I0
s(S'RotAngle'
p131
F86.48315
g103
tp132
I175
s(S'RotAngle'
p133
F130.1714
Vturn
p134
tp135
I221
s(S'RotAngle'
p136
F-356.0343
Vspin
p137
tp138
I370
s(S'RotSpeed'
p139
F1.716118
Vspin
p140
tp141
I377
s(S'TranslocSpeed'
p142
F3.874317
Vmove
p143
tp144
I139
s(S'TranslocDir'
p145
(F0.0
F0.4188087
F-2.980232e-08
tp146
Vlift
p147
tp148
I306
s(S'MotionManner'
p149
S'flip(plate,edge(plate))'
p150
Vmove
p151
tp152
I48
s(S'RotAngle'
p153
F34.74147
Vturn
p154
tp155
I165
s(S'TranslocDir'
p156
(F-0.3933919
F0.0
F0.9564747
tp157
Vspin
p158
tp159
I359
s(S'MotionManner'
p160
S'flip(ball,center(ball))'
p161
Vmove
p162
tp163
I40
s(S'PlacementOrder'
p164
S'ball,blackboard'
p165
Vmove
p166
tp167
I89
s(S'MotionSpeed'
p168
F3.070723
Vclose
p169
tp170
I14
s(S'TranslocSpeed'
p171
F1.465531
Vlift
p172
tp173
I243
s(S'TranslocSpeed'
p174
F0.6532902
Vmove
p175
tp176
I51
s(S'RotAxis'
p177
S'Y'
p178
g25
tp179
I324
s(S'TranslocDir'
p180
(F0.0
F0.6804185
F0.0
tp181
Vlift
p182
tp183
I300
s(S'RotSpeed'
p184
F1.464742
Vturn
p185
tp186
I185
s(S'TranslocSpeed'
p187
F3.869181
Vlift
p188
tp189
I259
s(S'TranslocDir'
p190
(F-1.490116e-08
F0.9586782
F-2.328306e-10
tp191
Vlift
p192
tp193
I272
s(S'RotSpeed'
p194
F0.47324
Vturn
p195
tp196
I194
s(S'MotionManner'
p197
S'roll(block3)'
p198
g20
tp199
I319
s(S'TranslocDir'
p200
(F0.01696574
F0.0
F-0.8589599
tp201
Vspin
p202
tp203
I345
s(S'MotionManner'
p204
S'flip(bottle,edge(bottle))'
p205
Vturn
p206
tp207
I197
s(S'RotSpeed'
p208
F3.401162
Vmove
p209
tp210
I115
s(S'TranslocSpeed'
p211
F3.458633
g15
tp212
I30
s(S'RotAngle'
p213
F79.82825
Vmove
p214
tp215
I122
s(S'RotAngle'
p216
F41.1444
Vmove
p217
tp218
I82
s(S'MotionManner'
p219
S'spin(ball)'
p220
Vmove
p221
tp222
I36
s(S'RotSpeed'
p223
F9.01031
Vmove
p224
tp225
I105
s(S'TranslocSpeed'
p226
F3.457394
Vmove
p227
tp228
I42
s(S'RotSpeed'
p229
F11.25723
Vspin
p230
tp231
I341
s(S'MotionManner'
p232
S'lean(grape,on(block3))'
p233
Vturn
p234
tp235
I207
s(S'MotionSpeed'
p236
F2.208191
Vopen
p237
tp238
I7
s(S'MotionManner'
p239
S'move(cork)'
p240
Vopen
p241
tp242
I21
s(S'RotSpeed'
p243
F8.678174
Vspin
p244
tp245
I343
s(S'RotSpeed'
p246
F3.42393
g89
tp247
I224
s(S'MotionSpeed'
p248
F7.429715
g14
tp249
I4
s(S'TranslocDir'
p250
(F0.0
F1.143364
F0.0
tp251
Vlift
p252
tp253
I256
s(S'RotAngle'
p254
F180.0
Vmove
p255
tp256
I97
s(S'MotionManner'
p257
S'put(disc,on(cup))'
p258
Vclose
p259
tp260
I9
s(S'RotAngle'
p261
F-255.8531
Vspin
p262
tp263
I349
s(S'MotionManner'
p264
S'turn(bowl)'
p265
g214
tp266
I123
s(S'MotionManner'
p267
S'lean(ball,against(disc))'
p268
g154
tp269
I166
s(S'RotSpeed'
p270
F9.800671
g137
tp271
I371
s(S'TranslocSpeed'
p272
F2.692408
Vlift
p273
tp274
I283
s(S'RotAngle'
p275
F148.0438
Vturn
p276
tp277
I181
s(S'RotAxis'
p278
S'Z'
p279
g16
tp280
I398
s(S'MotionManner'
p281
S'move(disc)'
p282
Vopen
p283
tp284
I11
s(S'RotSpeed'
p285
F4.993581
Vspin
p286
tp287
I337
s(S'MotionManner'
p288
S'lean(disc,on(grape))'
p289
g99
tp290
I69
s(S'MotionManner'
p291
S'lean(blackboard,on(pencil))'
p292
g217
tp293
I80
s(S'MotionManner'
p294
S'roll(bowl)'
p295
Vspin
p296
tp297
I378
s(S'TranslocDir'
p298
(F0.3245949
F0.0
F0.8478341
tp299
Vspin
p300
tp301
I396
s(S'RotSpeed'
p302
F9.366237
g25
tp303
I322
s(S'RotSpeed'
p304
F1.787689
Vturn
p305
tp306
I174
s(S'RotAngle'
p307
F526.9747
Vspin
p308
tp309
I374
s(S'TranslocDir'
p310
(F0.0
F0.5016611
F0.0
tp311
Vlift
p312
tp313
I282
s(S'MotionManner'
p314
S'stack(bowl,cup)'
p315
Vmove
p316
tp317
I126
s(S'TranslocSpeed'
p318
F4.881417
g39
tp319
I263
s(S'TranslocSpeed'
p320
F0.8024031
g29
tp321
I32
s(S'SymmetryAxis'
p322
S'X'
p323
g16
tp324
I397
s(S'TranslocSpeed'
p325
F1.34657
g147
tp326
I305
s(S'SymmetryAxis'
p327
S'X'
p328
g162
tp329
I41
s(S'RotAngle'
p330
F161.8341
Vturn
p331
tp332
I159
s(S'MotionManner'
p333
S'flip(banana,center(banana))'
p334
Vmove
p335
tp336
I116
s(S'TranslocSpeed'
p337
F3.339347
Vlift
p338
tp339
I253
s(S'TranslocSpeed'
p340
F3.885224
Vlift
p341
tp342
I277
s(S'SymmetryAxis'
p343
S'Y'
p344
g151
tp345
I50
s(S'TranslocSpeed'
p346
F4.263702
Vlift
p347
tp348
I295
s(S'RotAngle'
p349
F377.2106
Vspin
p350
tp351
I327
s(S'RotSpeed'
p352
F6.24387
Vturn
p353
tp354
I234
s(S'TranslocDir'
p355
(F-1.170362
F9.608269e-05
F-0.6635511
tp356
g51
tp357
I60
s(S'MotionManner'
p358
S'lean(blackboard,on(bottle))'
p359
g83
tp360
I84
s(S'RotSpeed'
p361
F6.446218
Vturn
p362
tp363
I226
s(S'MotionManner'
p364
S'lean(knife,against(cup))'
p365
g92
tp366
I136
s(S'RotAngle'
p367
F51.96568
g14
tp368
I2
s(S'TranslocDir'
p369
(F0.1681427
F2.384186e-07
F0.5118222
tp370
Vmove
p371
tp372
I73
s(S'RotSpeed'
p373
F11.37559
Vturn
p374
tp375
I231
s(S'MotionManner'
p376
S'spin(book)'
p377
Vmove
p378
tp379
I77
s(S'TranslocDir'
p380
(F0.0
F0.9362621
F0.0
tp381
g188
tp382
I260
s(S'MotionManner'
p383
S'flip(cup,edge(cup))'
p384
Vturn
p385
tp386
I171
s(S'TranslocSpeed'
p387
F4.369549
g312
tp388
I281
s(S'PlacementOrder'
p389
S'cup,bowl'
p390
g316
tp391
I127
s(S'MotionManner'
p392
S'turn(grape)'
p393
g224
tp394
I104
s(S'MotionManner'
p395
S'roll(cup)'
p396
Vspin
p397
tp398
I338
s(S'MotionManner'
p399
S'roll(pencil)'
p400
Vspin
p401
tp402
I389
s(S'TranslocDir'
p403
(F0.0
F0.4718959
F0.0
tp404
g116
tp405
I302
s(S'TranslocDir'
p406
(F1.405521
F-0.6458685
F-0.6969199
tp407
g106
tp408
I28
s(S'TranslocDir'
p409
(F0.0
F0.8821914
F0.0
tp410
g273
tp411
I284
s(S'RotDir'
p412
I1
Vturn
p413
tp414
I158
s(S'TranslocSpeed'
p415
F2.440411
g43
tp416
I313
s(S'TranslocSpeed'
p417
F2.340133
Vlift
p418
tp419
I293
s(S'TranslocSpeed'
p420
F0.6242365
Vmove
p421
tp422
I150
s(S'MotionManner'
p423
S'roll(bottle)'
p424
g158
tp425
I358
s(S'RotSpeed'
p426
F4.632955
Vturn
p427
tp428
I162
s(S'TranslocDir'
p429
(F0.0
F0.5803504
F0.0
tp430
Vlift
p431
tp432
I252
s(S'RotSpeed'
p433
F11.30936
g221
tp434
I39
s(S'RotAngle'
p435
F-533.3856
Vspin
p436
tp437
I382
s(S'TranslocSpeed'
p438
F4.01893
Vlift
p439
tp440
I317
s(S'MotionManner'
p441
S'put(grape,near(apple))'
p442
Vmove
p443
tp444
I99
s(S'TranslocDir'
p445
(F0.0
F0.7774734
F0.0
tp446
Vlift
p447
tp448
I268
s(S'RotAngle'
p449
F101.4173
Vturn
p450
tp451
I217
s(S'TranslocSpeed'
p452
F2.103319
g83
tp453
I83
s(S'RotSpeed'
p454
F6.101655
g175
tp455
I54
s(S'TranslocSpeed'
p456
F3.454099
Vmove
p457
tp458
I128
s(S'MotionManner'
p459
S'roll(pencil)'
p460
Vmove
p461
tp462
I145
s(S'MotionManner'
p463
S'roll(paper_sheet)'
p464
g300
tp465
I395
s(S'RotSpeed'
p466
F2.214497
Vspin
p467
tp468
I362
s(S'RotAngle'
p469
F25.24083
Vmove
p470
tp471
I65
s(S'MotionManner'
p472
S'spin(disc)'
p473
g470
tp474
I66
s(S'MotionManner'
p475
S'put(bowl,near(cup))'
p476
g65
tp477
I119
s(S'TranslocSpeed'
p478
F3.25881
Vlift
p479
tp480
I315
s(S'RotAxis'
p481
S'X'
p482
Vflip
p483
tp484
I400
s(S'TranslocSpeed'
p485
F4.177973
Vlift
p486
tp487
I287
s(S'RotAxis'
p488
S'Z'
p489
g262
tp490
I351
s(S'MotionManner'
p491
S'roll(apple)'
p492
Vmove
p493
tp494
I109
s(S'TranslocDir'
p495
(F0.0
F0.4945719
F0.0
tp496
Vlift
p497
tp498
I292
s(S'SymmetryAxis'
p499
S'Y'
p500
g385
tp501
I172
s(S'TranslocDir'
p502
(F-0.035294
F0.0001692772
F-0.7652456
tp503
Vmove
p504
tp505
I92
s(S'TranslocDir'
p506
(F2.384186e-07
F0.3840067
F2.980232e-08
tp507
Vlift
p508
tp509
I304
s(S'RotSpeed'
p510
F3.1356
g214
tp511
I124
s(S'TranslocDir'
p512
(F0.0
F0.3125811
F0.0
tp513
g172
tp514
I244
s(S'TranslocDir'
p515
(F-0.2410117
F0.0
F-0.5227658
tp516
Vspin
p517
tp518
I330
s(S'RotSpeed'
p519
F0.1742154
Vspin
p520
tp521
I332
s(S'MotionManner'
p522
S'spin(blackboard)'
p523
Vturn
p524
tp525
I190
s(S'RotAngle'
p526
F83.99393
g305
tp527
I173
s(S'RotSpeed'
p528
F8.646122
g436
tp529
I383
s(S'TranslocSpeed'
p530
F3.473155
Vlift
p531
tp532
I297
s(S'RotAngle'
p533
F90.0
g175
tp534
I55
s(S'RotSpeed'
p535
F5.352028
g217
tp536
I81
s(S'SymmetryAxis'
p537
S'Z'
p538
g17
tp539
I155
s(S'RotSpeed'
p540
F11.53642
g103
tp541
I178
s(S'RotSpeed'
p542
F11.14164
g134
tp543
I222
s(S'RotAngle'
p544
F177.1022
g427
tp545
I161
s(S'TranslocDir'
p546
(F0.0
F0.8144827
F0.0
tp547
Vlift
p548
tp549
I270
s(S'RotSpeed'
p550
F4.377734
g99
tp551
I70
s(S'MotionSpeed'
p552
F0.5272764
g241
tp553
I23
s(S'TranslocDir'
p554
(F1.299091
F-0.6457663
F-1.200944
tp555
g241
tp556
I22
s(S'PlacementOrder'
p557
S'knife,pencil'
p558
Vmove
p559
tp560
I134
s(S'TranslocDir'
p561
(F0.433338
F8.106232e-05
F-0.1310182
tp562
g443
tp563
I100
s(S'MotionManner'
p564
S'lean(knife,on(cup))'
p565
g457
tp566
I129
s(S'RotAngle'
p567
F459.6351
Vspin
p568
tp569
I354
s(S'RotAngle'
p570
F-232.603
Vspin
p571
tp572
I356
s(S'RotSpeed'
p573
F7.054039
g568
tp574
I355
s(S'RotSpeed'
p575
F6.294958
g308
tp576
I375
s(S'RotAxis'
p577
S'Y'
p578
g61
tp579
I402
s(S'TranslocDir'
p580
(F5.960464e-08
F0.9027908
F2.980232e-08
tp581
g341
tp582
I278
s(S'RotSpeed'
p583
F10.58038
g413
tp584
I157
s(S'TranslocDir'
p585
(F0.0
F0.1626775
F-2.980232e-08
tp586
Vlift
p587
tp588
I308
s(S'RotAngle'
p589
F-305.9446
Vspin
p590
tp591
I346
s(S'RotAngle'
p592
F99.31501
g353
tp593
I233
s(S'TranslocSpeed'
p594
F0.82304
g316
tp595
I125
s(S'TranslocDir'
p596
(F0.0
F0.9953394
F0.0
tp597
Vlift
p598
tp599
I280
s(S'TranslocDir'
p600
(F-0.4367229
F0.0
F0.5959383
tp601
Vspin
p602
tp603
I367
s(S'RotAngle'
p604
F458.4987
g286
tp605
I336
s(S'RotSpeed'
p606
F6.107067
g110
tp607
I385
s(S'TranslocSpeed'
p608
F0.8326483
g447
tp609
I267
s(S'TranslocDir'
p610
(F-0.6656906
F0.0
F-0.8248188
tp611
g461
tp612
I146
s(S'RotSpeed'
p613
F1.09645
Vspin
p614
tp615
I326
s(S'TranslocDir'
p616
(F0.0
F0.2389672
F0.0
tp617
Vlift
p618
tp619
I310
s(S'TranslocDir'
p620
(F0.04749555
F0.0
F-0.4238628
tp621
Vspin
p622
tp623
I369
s(S'RotAngle'
p624
F141.5763
g224
tp625
I103
s(S'MotionManner'
p626
S'roll(ball)'
p627
Vturn
p628
tp629
I163
s(S'TranslocSpeed'
p630
F0.3100747
g371
tp631
I71
s(S'RotAngle'
p632
F132.2681
g83
tp633
I86
s(S'MotionManner'
p634
S'roll(disc)'
p635
g202
tp636
I344
s(S'RotSpeed'
p637
F11.37481
g524
tp638
I192
s(S'RotSpeed'
p639
F0.4352629
g234
tp640
I208
s(S'RotAngle'
p641
F-275.4545
Vspin
p642
tp643
I365
s(S'PlacementOrder'
p644
S'paper_sheet,bowl'
p645
g421
tp646
I152
s(S'RotAngle'
p647
F517.8762
g35
tp648
I391
s(S'MotionManner'
p649
S'put(block3,on(pencil))'
p650
g15
tp651
I31
s(S'RotSpeed'
p652
F3.87532
Vspin
p653
tp654
I394
s(S'RotSpeed'
p655
F8.00965
Vmove
p656
tp657
I149
s(S'MotionManner'
p658
S'turn(banana)'
p659
g209
tp660
I114
s(S'RotSpeed'
p661
F8.240101
Vturn
p662
tp663
I188
s(S'RotAngle'
p664
F72.23972
g656
tp665
I147
s(S'RotSpeed'
p666
F3.530889
Vspin
p667
tp668
I388
s(S'MotionManner'
p669
S'flip(pencil,center(pencil))'
p670
Vturn
p671
tp672
I232
s(S'TranslocSpeed'
p673
F0.3956813
g252
tp674
I255
s(S'TranslocDir'
p675
(F0.0
F0.321532
F0.0
tp676
g18
tp677
I240
s(S'MotionManner'
p678
S'turn(front_cover)'
p679
g14
tp680
I3
s(S'MotionManner'
p681
S'lift(block3)'
p682
g29
tp683
I33
s(S'RotAngle'
p684
F26.93816
Vturn
p685
tp686
I212
s(S'MotionManner'
p687
S'put(cork,on(bottle))'
p688
Vclose
p689
tp690
I19
s(S'TranslocSpeed'
p691
F3.073483
g618
tp692
I309
s(S'MotionManner'
p693
S'lift(cup)'
p694
Vmove
p695
tp696
I63
s(S'RotSpeed'
p697
F11.67634
g350
tp698
I328
s(S'MotionManner'
p699
S'spin(banana)'
p700
g685
tp701
I213
s(S'RotAngle'
p702
F127.8877
Vturn
p703
tp704
I199
s(S'TranslocDir'
p705
(F0.0
F0.079427
F0.0
tp706
g347
tp707
I296
s(S'RotAngle'
p708
F14.96508
g221
tp709
I35
s(S'MotionManner'
p710
S'flip(grape,center(grape))'
p711
Vmove
p712
tp713
I102
s(S'RotAngle'
p714
F29.2304
g123
tp715
I227
s(S'MotionManner'
p716
S'lean(blackboard,on(disc))'
p717
g662
tp718
I187
s(S'TranslocSpeed'
p719
F0.1985139
Vmove
p720
tp721
I56
s(S'MotionManner'
p722
S'put(cup,near(cork))'
p723
g51
tp724
I59
s(S'RotAngle'
p725
F246.573
g140
tp726
I376
s(S'RotSpeed'
p727
F8.233168
g92
tp728
I137
s(S'MotionSpeed'
p729
F1.202949
Vclose
p730
tp731
I24
s(S'RotSpeed'
p732
F10.31045
g378
tp733
I78
s(S'MotionManner'
p734
S'put(cup,on(pencil))'
p735
g720
tp736
I57
s(S'TranslocDir'
p737
(F0.03421471
F0.0
F-0.5164917
tp738
Vturn
p739
tp740
I170
s(S'RotSpeed'
p741
F10.24815
Vturn
p742
tp743
I196
s(S'RotAngle'
p744
F118.2695
Vturn
p745
tp746
I210
s(S'TranslocDir'
p747
(F0.0
F0.8539486
F0.0
tp748
g338
tp749
I254
s(S'TranslocDir'
p750
(F0.6628905
F0.0
F0.3793117
tp751
Vspin
p752
tp753
I348
s(S'TranslocDir'
p754
(F0.0
F1.18816
F0.0
tp755
Vlift
p756
tp757
I276
s(S'RotAngle'
p758
F113.2507
Vturn
p759
tp760
I179
s(S'RotSpeed'
p761
F10.21198
Vspin
p762
tp763
I353
s(S'TranslocSpeed'
p764
F1.001014
Vlift
p765
tp766
I273
s(S'SymmetryAxis'
p767
S'X'
p768
Vturn
p769
tp770
I216
s(S'MotionSpeed'
p771
F4.055794
Vclose
p772
tp773
I5
s(S'RotAngle'
p774
F56.65679
g378
tp775
I76
s(S'TranslocDir'
p776
(F0.0
F1.574505
F0.0
tp777
g765
tp778
I274
s(S'TranslocSpeed'
p779
F3.073225
g431
tp780
I251
s(S'RotSpeed'
p781
F2.762628
g759
tp782
I180
s(S'RotAngle'
p783
F126.9441
g374
tp784
I230
s(S'TranslocSpeed'
p785
F0.6113404
Vlift
p786
tp787
I247
s(S'MotionManner'
p788
S'spin(paper_sheet)'
p789
g656
tp790
I148
s(S'TranslocDir'
p791
(F0.0
F0.7986002
F0.0
tp792
g80
tp793
I144
s(S'MotionManner'
p794
S'flip(banana,center(banana))'
p795
g769
tp796
I215
s(S'TranslocSpeed'
p797
F2.527062
g73
tp798
I311
s(S'TranslocSpeed'
p799
F4.614017
Vlift
p800
tp801
I285
s(S'TranslocDir'
p802
(F0.0
F0.7130713
F0.0
tp803
Vlift
p804
tp805
I266
s(S'RotSpeed'
p806
F9.421745
g470
tp807
I67
s(S'MotionManner'
p808
S'flip(paper_sheet,center(paper_sheet))'
p809
Vturn
p810
tp811
I235
s(S'RotSpeed'
p812
F7.500051
g745
tp813
I211
s(S'TranslocDir'
p814
(F0.3404832
F0.0
F-0.2169268
tp815
g401
tp816
I390
s(S'RotAxis'
p817
S'X'
p818
g151
tp819
I49
s(S'MotionManner'
p820
S'put(bottle,near(cork))'
p821
g504
tp822
I91
s(S'TranslocDir'
p823
(F0.0
F0.7400949
F0.0
tp824
g695
tp825
I64
s(S'TranslocSpeed'
p826
F4.388855
g47
tp827
I111
s(S'RotAngle'
p828
F60.71206
g457
tp829
I131
s(S'TranslocDir'
p830
(F0.1732439
F0.0
F0.5994176
tp831
g493
tp832
I110
s(S'RelOffset'
p833
(F-1.066662
F-0.06591892
F-0.6310182
tp834
g443
tp835
I101
s(S'TranslocDir'
p836
(F0.0
F0.4153385
F0.0
tp837
g57
tp838
I242
s(S'TranslocSpeed'
p839
F2.25689
g587
tp840
I307
s(S'MotionSpeed'
p841
F0.3162676
Vclose
p842
tp843
I27
s(S'MotionManner'
p844
S'slide(book)'
p845
g371
tp846
I72
s(S'RotAngle'
p847
F18.1932
g195
tp848
I193
s(S'RotAngle'
p849
F-500.9829
g244
tp850
I342
s(S'MotionManner'
p851
S'flip(book,center(book))'
p852
Vmove
p853
tp854
I74
s(S'RotSpeed'
p855
F4.4922
g255
tp856
I96
s(S'TranslocSpeed'
p857
F3.538277
g548
tp858
I269
s(S'TranslocDir'
p859
(F0.4266845
F-0.2479575
F-0.3680093
tp860
g283
tp861
I12
s(S'MotionManner'
p862
S'roll(apple)'
p863
g622
tp864
I368
s(S'RotAngle'
p865
F120.6013
g742
tp866
I195
s(S'TranslocSpeed'
p867
F2.597387
g65
tp868
I118
s(S'TranslocDir'
p869
(F0.0
F0.589474
F0.0
tp870
Vmove
p871
tp872
I47
s(S'RotAxis'
p873
S'Y'
p874
g103
tp875
I177
s(S'TranslocSpeed'
p876
F0.5991256
Vlift
p877
tp878
I249
s(S'RotAxis'
p879
S'X'
p880
g17
tp881
I154
s(S'RotAngle'
p882
F105.25
Vturn
p883
tp884
I204
s(S'MotionSpeed'
p885
F4.637863
g259
tp886
I10
s(S'TranslocSpeed'
p887
F2.111848
g192
tp888
I271
s(S'TranslocDir'
p889
(F-0.09953053
F0.0
F0.4553957
tp890
g296
tp891
I379
s(S'RotAngle'
p892
F307.9375
g667
tp893
I387
s(S'TranslocSpeed'
p894
F2.603278
g695
tp895
I62
s(S'TranslocSpeed'
p896
F0.9849894
g497
tp897
I291
s(S'MotionManner'
p898
S'spin(knife)'
p899
g123
tp900
I228
s(S'MotionManner'
p901
S'lean(paper_sheet,against(pencil))'
p902
Vturn
p903
tp904
I237
s(S'TranslocDir'
p905
(F0.0
F0.7492812
F0.0
tp906
g877
tp907
I250
s(S'MotionManner'
p908
S'lean(bottle,on(cork))'
p909
g255
tp910
I95
s(S'MotionManner'
p911
S'lean(plate,against(knife))'
p912
g175
tp913
I52
s(S'TranslocDir'
p914
(F-0.07324531
F0.0
F-0.656705
tp915
g120
tp916
I169
s(S'RotSpeed'
p917
F2.942988
g457
tp918
I130
s(S'RotDir'
p919
I-1
g221
tp920
I37
s(S'TranslocDir'
p921
(F-2.204277
F-0.247766
F0.2962722
tp922
Vopen
p923
tp924
I17
s(S'TranslocSpeed'
p925
F2.556473
Vlift
p926
tp927
I289
s(S'TranslocSpeed'
p928
F4.495313
Vlift
p929
tp930
I245
s(S'MotionManner'
p931
S'turn(apple)'
p932
Vmove
p933
tp934
I107
s(S'TranslocDir'
p935
(F0.0
F0.7061992
F0.0
tp936
g479
tp937
I316
s(S'RotAngle'
p938
F172.9296
g185
tp939
I184
s(S'RelOffset'
p940
(F-0.5355343
F0.296931
F-0.01599199
tp941
g504
tp942
I93
s(S'MotionSpeed'
p943
F0.8470118
g689
tp944
I20
s(S'MotionManner'
p945
S'spin(grape)'
p946
g32
tp947
I202
s(S'TranslocSpeed'
p948
F1.90953
g598
tp949
I279
s(S'TranslocSpeed'
p950
F2.263133
g51
tp951
I58
s(S'MotionManner'
p952
S'flip(disc,center(disc))'
p953
Vturn
p954
tp955
I183
s(S'TranslocDir'
p956
(F-0.2124754
F0.0
F0.8476102
tp957
Vturn
p958
tp959
I220
s(S'TranslocDir'
p960
(F4.470348e-08
F0.9306357
F0.0
tp961
g418
tp962
I294
s(S'TranslocSpeed'
p963
F3.326786
g182
tp964
I299
s(S'TranslocSpeed'
p965
F2.38304
Vlift
p966
tp967
I257
s(S'RotAngle'
p968
F57.5139
g92
tp969
I138
s(S'TranslocDir'
p970
(F0.1374618
F0.0
F0.7277713
tp971
g77
tp972
I364
s(S'RotSpeed'
p973
F4.306219
g933
tp974
I108
s(S'RotAngle'
p975
F-369.2608
g653
tp976
I393
s(S'MotionManner'
p977
S'slide(ball)'
p978
g227
tp979
I43
s(S'RotSpeed'
p980
F11.04518
g590
tp981
I347
s(S'RotDir'
p982
I1
g175
tp983
I53
s(S'TranslocSpeed'
p984
F2.255295
Vlift
p985
tp986
I261
s(S'RotSpeed'
p987
F12.22345
g903
tp988
I238
s(S'MotionManner'
p989
S'roll(bowl)'
p990
g958
tp991
I219
s(S'RotSpeed'
p992
F7.848799
g883
tp993
I205
s(S'TranslocSpeed'
p994
F0.3506464
g504
tp995
I90
s(S'RotSpeed'
p996
F11.6837
g571
tp997
I357
s(S'TranslocDir'
p998
(F0.0
F0.5842781
F0.0
tp999
g966
tp1000
I258
s(S'RotSpeed'
p1001
F8.015513
g331
tp1002
I160
s(S'RotSpeed'
p1003
F3.853061
g685
tp1004
I214
s(S'RotAngle'
p1005
F486.3298
g762
tp1006
I352
s(S'TranslocDir'
p1007
(F0.8204302
F0.0
F-0.7697436
tp1008
Vspin
p1009
tp1010
I360
s(S'RotAngle'
p1011
F32.81547
g524
tp1012
I189
s(S'MotionManner'
p1013
S'slide(pencil)'
p1014
g143
tp1015
I140
s(S'MotionManner'
p1016
S'flip(apple,edge(apple))'
p1017
Vturn
p1018
tp1019
I209
s(S'RotAngle'
p1020
F142.6505
g413
tp1021
I156
s(S'TranslocDir'
p1022
(F0.0
F0.1293831
F0.0
tp1023
g439
tp1024
I318
s(S'TranslocSpeed'
p1025
F2.274046
g166
tp1026
I87
s(S'RotSpeed'
p1027
F7.126992
g262
tp1028
I350
s(S'TranslocDir'
p1029
(F0.5413572
F0.0
F0.03848431
tp1030
g397
tp1031
I339
s(S'RotDir'
p1032
I-1
g524
tp1033
I191
s(S'TranslocDir'
p1034
(F0.2033113
F-0.6456926
F-0.8723536
tp1035
g86
tp1036
I25
s(S'MotionSpeed'
p1037
F3.936836
g923
tp1038
I18
s(S'MotionSpeed'
p1039
F2.297372
Vclose
p1040
tp1041
I8
s(S'RotAngle'
p1042
F283.9283
g467
tp1043
I361
s(S'RotSpeed'
p1044
F10.80267
g276
tp1045
I182
s(S'TranslocSpeed'
p1046
F3.277989
g804
tp1047
I265
s(S'RotAngle'
p1048
F-216.8074
g54
tp1049
I372
s(S'TranslocSpeed'
p1050
F4.748388
g559
tp1051
I132
s(S'MotionManner'
p1052
S'stack(knife,pencil)'
p1053
g559
tp1054
I133
s(S'RotAxis'
p1055
S'Y'
p1056
g221
tp1057
I38
s(S'RotAngle'
p1058
F90.0
g903
tp1059
I236
s(S'RotAngle'
p1060
F-500.0562
Vspin
p1061
tp1062
I333
s(S'TranslocDir'
p1063
(F-0.05491841
F0.0
F0.784187
tp1064
g227
tp1065
I44
s(S'RotSpeed'
p1066
F2.962084
g642
tp1067
I366
s(S'RotSpeed'
p1068
F1.66136
g154
tp1069
I167
s(S'TranslocSpeed'
p1070
F0.08383572
g756
tp1071
I275
s(S'RotAxis'
p1072
S'Z'
p1073
g853
tp1074
I75
s(S'RotAngle'
p1075
F-434.7071
g110
tp1076
I384
s(S'MotionSpeed'
p1077
F3.961755
g283
tp1078
I13
s(S'TranslocDir'
p1079
(F-0.4896523
F0.0
F-0.3770692
tp1080
g628
tp1081
I164
s(S'RotSpeed'
p1082
F9.886058
g113
tp1083
I381
s(S'MotionManner'
p1084
S'lift(pencil)'
p1085
g80
tp1086
I143
s(S'RotDir'
p1087
I-1
g1061
tp1088
I335
s(S'TranslocSpeed'
p1089
F2.993017
g508
tp1090
I303
s(S'RotAngle'
p1091
F165.2171
g933
tp1092
I106
s(S'RotAngle'
p1093
F180.0
g234
tp1094
I206
s(S'RotAngle'
p1095
F43.10715
g662
tp1096
I186
s(S'MotionManner'
p1097
S'stack(blackboard,ball)'
p1098
g166
tp1099
I88
s(S'MotionSpeed'
p1100
F2.390957
g19
tp1101
I1
s(S'TranslocDir'
p1102
(F0.0
F0.4474995
F0.0
tp1103
g985
tp1104
I262
s(S'RotAxis'
p1105
S'Z'
p1106
g206
tp1107
I198
s(S'TranslocDir'
p1108
(F0.0
F0.353132
F0.0
tp1109
g531
tp1110
I298
s(S'RotAngle'
p1111
F455.9153
g614
tp1112
I325
s(S'RotSpeed'
p1113
F0.9735346
g32
tp1114
I203
s(S'TranslocSpeed'
p1115
F2.655697
g871
tp1116
I45
s(S'TranslocSpeed'
p1117
F4.736666
g255
tp1118
I94
s(S'TranslocSpeed'
p1119
F3.62548
g443
tp1120
I98
s(S'RotSpeed'
p1121
F11.87826
g703
tp1122
I200
s(S'MotionManner'
p1123
S'lift(plate)'
p1124
g871
tp1125
I46
s(S'TranslocDir'
p1126
(F0.0
F0.756135
F0.0
tp1127
g786
tp1128
I248
s(S'TranslocDir'
p1129
(F0.0
F0.3662255
F0.0
tp1130
g800
tp1131
I286
s(S'MotionManner'
p1132
S'stack(paper_sheet,bowl)'
p1133
g421
tp1134
I151
s(S'RotAngle'
p1135
F525.2396
g520
tp1136
I331
s(S'SymmetryAxis'
p1137
S'Y'
p1138
g483
tp1139
I399
s(S'RotAngle'
p1140
F170.9972
g209
tp1141
I113
s(S'TranslocDir'
p1142
(F0.0
F1.101034
F0.0
tp1143
g929
tp1144
I246
s(S'RotAngle'
p1145
F59.57208
g362
tp1146
I225
s(S'TranslocSpeed'
p1147
F3.958493
g18
tp1148
I239
s(S'TranslocDir'
p1149
(F-0.5281171
F0.0
F0.04425396
tp1150
g20
tp1151
I320
s(S'RotSpeed'
p1152
F3.765241
g1061
tp1153
I334
s(S'TranslocDir'
p1154
(F-0.5544455
F0.0
F-0.833585
tp1155
g143
tp1156
I141
s(S'RotAngle'
p1157
F470.1736
g230
tp1158
I340
s(S'RelOffset'
p1159
(F-0.296109
F-0.05980802
F-0.3785043
tp1160
g65
tp1161
I121
s(S'SymmetryAxis'
p1162
S'Z'
p1163
g335
tp1164
I117
s(S'MotionManner'
p1165
S'roll(ball)'
p1166
g517
tp1167
I329
s(S'TranslocDir'
p1168
(F0.0
F1.010379
F0.0
tp1169
g486
tp1170
I288
s(S'TranslocDir'
p1171
(F0.0
F0.3566332
F0.0
tp1172
g926
tp1173
I290
s(S'TranslocSpeed'
p1174
F0.1713264
g217
tp1175
I79
s(S'RotSpeed'
p1176
F7.80068
g450
tp1177
I218
s(S'RotAngle'
p1178
F83.1692
g237
tp1179
I6
ssS'_length'
p1180
I403
sS'_unseen'
p1181
NsS'_alwayson'
p1182
NsbsS'_weights'
p1183
cnumpy.core.multiarray
_reconstruct
p1184
(cnumpy
ndarray
p1185
(I0
tp1186
S'b'
p1187
tp1188
Rp1189
(I1
(I404
tp1190
cnumpy
dtype
p1191
(S'f8'
p1192
I0
I1
tp1193
Rp1194
(I3
S'<'
p1195
NNNI-1
I-1
I0
tp1196
bI00
S"}%\x8d\x9cy9\x08@\xef9\x19\xe3\xe3\xb2\x10@'\xb1\xe6\xaa\x16f\n@.\xc4\x0e0r\xab\xf4?'\xb1\xe6\xaa\x16f\n@\xef9\x19\xe3\xe3\xb2\x10@'\xb1\xe6\xaa\x16f\n@'\xb1\xe6\xaa\x16f\n@\xef9\x19\xe3\xe3\xb2\x10@\xec\x80L\x1f\xdf<\x0c@\xec\x80L\x1f\xdf<\x0c@\xb8!\x8a\x04\x17?\x03@\xc2!\x8a\x04\x17?\x03@\xc2!\x8a\x04\x17?\x03@\xec\x80L\x1f\xdf<\x0c@\xc2!\x8a\x04\x17?\x03@\xc2!\x8a\x04\x17?\x03@\xc2!\x8a\x04\x17?\x03@\xc2!\x8a\x04\x17?\x03@\xe4\x80L\x1f\xdf<\x0c@\xf2\x80L\x1f\xdf<\x0c@\xb8!\x8a\x04\x17?\x03@\xc2!\x8a\x04\x17?\x03@\xc2!\x8a\x04\x17?\x03@\xf2\x80L\x1f\xdf<\x0c@\xc2!\x8a\x04\x17?\x03@\xc2!\x8a\x04\x17?\x03@\xf2\x80L\x1f\xdf<\x0c@\xc2!\x8a\x04\x17?\x03@\xc2!\x8a\x04\x17?\x03@\xdd\x80L\x1f\xdf<\x0c@\xdd\x80L\x1f\xdf<\x0c@\xaa!\x8a\x04\x17?\x03@\xaa!\x8a\x04\x17?\x03@\xaa!\x8a\x04\x17?\x03@y;d'\xc3\x18\x06@y;d'\xc3\x18\x06@\x88Cq|\xdd.\xe5?\x900\xc0C\xb9|\xf0\xbfy;d'\xc3\x18\x06@\xdd\x86r\x8e\x17\xac @\x06\xf4\x1d\x07l\xd5\xf3?\xaa!\x8a\x04\x17?\x03@\xaa!\x8a\x04\x17?\x03@\xaa!\x8a\x04\x17?\x03@\xaa!\x8a\x04\x17?\x03@\xaa!\x8a\x04\x17?\x03@\xaa!\x8a\x04\x17?\x03@5W\x99LE2$@\xac\xce\x90\xa4\xb1\xf6\xf9?\x10V\x96)\x86\xf4\x03\xc0\xc7\xf2I\xb6\nq\x00@\xc7\xf2I\xb6\nq\x00@+\xdb\xa1\xc8\xcc\xc4\xd9?\xc7\xf2I\xb6\nq\x00@\x15\xc2\x90\x1f\xa9y\xf7?\xdd\x80L\x1f\xdf<\x0c@\xdd\x80L\x1f\xdf<\x0c@Hq\xfcw\xbf\xd9\xfc?Hq\xfcw\xbf\xd9\xfc?Hq\xfcw\xbf\xd9\xfc?Hq\xfcw\xbf\xd9\xfc?\xaa!\x8a\x04\x17?\x03@\xaa!\x8a\x04\x17?\x03@\xaa!\x8a\x04\x17?\x03@y;d'\xc3\x18\x06@y;d'\xc3\x18\x06@y;d'\xc3\x18\x06@\xe8\ry\x18d\x02\xfe?\xe8\ry\x18d\x02\xfe?\xe8\ry\x18d\x02\xfe?\xaa!\x8a\x04\x17?\x03@\xaa!\x8a\x04\x17?\x03@\xaa!\x8a\x04\x17?\x03@\xf5\xfdRg\xf3\x0f\x1e@Q9\xf8\xf7\x01\xf5\xee?8\xd8\x9ey\xb0k\x06@8\xd8\x9ey\xb0k\x06@8\xd8\x9ey\xb0k\x06@p\xf4\xa5`\x04\xa1\xfc?p\xf4\xa5`\x04\xa1\xfc?p\xf4\xa5`\x04\xa1\xfc?p\xf4\xa5`\x04\xa1\xfc?p\xf4\xa5`\x04\xa1\xfc?p\xf4\xa5`\x04\xa1\xfc?p\xf4\xa5`\x04\xa1\xfc?p\xf4\xa5`\x04\xa1\xfc?\xaa!\x8a\x04\x17?\x03@\xaa!\x8a\x04\x17?\x03@\xaa!\x8a\x04\x17?\x03@Hq\xfcw\xbf\xd9\xfc?Hq\xfcw\xbf\xd9\xfc?Hq\xfcw\xbf\xd9\xfc?Hq\xfcw\xbf\xd9\xfc?\x8b.\xa7\x92\xc09\x01@\x8b.\xa7\x92\xc09\x01@\x8b.\xa7\x92\xc09\x01@LGa\xed\x9e`\xf4?Hq\xfcw\xbf\xd9\xfc?Hq\xfcw\xbf\xd9\xfc?Hq\xfcw\xbf\xd9\xfc?Hq\xfcw\xbf\xd9\xfc?\xf5\xfdRg\xf3\x0f\x1e@ja\x18\xd1\xd9\x1a\x03@ja\x18\xd1\xd9\x1a\x03@ja\x18\xd1\xd9\x1a\x03@ja\x18\xd1\xd9\x1a\x03@ja\x18\xd1\xd9\x1a\x03@ja\x18\xd1\xd9\x1a\x03@\x02\xa0\xbb\x81h\xbf\x04@F\xb9\x1c\xadhz\x13@\xdd\x80L\x1f\xdf<\x0c@\xdd\x80L\x1f\xdf<\x0c@ja\x18\xd1\xd9\x1a\x03@ja\x18\xd1\xd9\x1a\x03@ja\x18\xd1\xd9\x1a\x03@\xd6\xbdr\xc5,\xe7\x18@\xb3\xb4+C\x05\xcf\xf9?Hq\xfcw\xbf\xd9\xfc?Hq\xfcw\xbf\xd9\xfc?Hq\xfcw\xbf\xd9\xfc?Hq\xfcw\xbf\xd9\xfc?ja\x18\xd1\xd9\x1a\x03@ja\x18\xd1\xd9\x1a\x03@ja\x18\xd1\xd9\x1a\x03@\xaa!\x8a\x04\x17?\x03@\xaa!\x8a\x04\x17?\x03@\xaa!\x8a\x04\x17?\x03@p\xf4\xa5`\x04\xa1\xfc?p\xf4\xa5`\x04\xa1\xfc?p\xf4\xa5`\x04\xa1\xfc?p\xf4\xa5`\x04\xa1\xfc?\xaa!\x8a\x04\x17?\x03@\xaa!\x8a\x04\x17?\x03@\xaa!\x8a\x04\x17?\x03@p\xf4\xa5`\x04\xa1\xfc?p\xf4\xa5`\x04\xa1\xfc?p\xf4\xa5`\x04\xa1\xfc?p\xf4\xa5`\x04\xa1\xfc?\xaa!\x8a\x04\x17?\x03@\xaa!\x8a\x04\x17?\x03@\xaa!\x8a\x04\x17?\x03@\xaa!\x8a\x04\x17?\x03@\xaa!\x8a\x04\x17?\x03@\xaa!\x8a\x04\x17?\x03@\x02\xa0\xbb\x81h\xbf\x04@F\xb9\x1c\xadhz\x13@y;d'\xc3\x18\x06@y;d'\xc3\x18\x06@y;d'\xc3\x18\x06@\xaa!\x8a\x04\x17?\x03@\xaa!\x8a\x04\x17?\x03@\xaa!\x8a\x04\x17?\x03@o\x04w\xa0|\x10 @\xae\xb9\xa5\xe1~\xc0\xd7?\xba_`PY\xe3\xf1?\x82\xde\x88\xef\x1c\xe6\x06@\x82\xde\x88\xef\x1c\xe6\x06@\xec\xdf\x9c\x91\x86\xd2\xfa?\x82\xde\x88\xef\x1c\xe6\x06@\x82\xde\x88\xef\x1c\xe6\x06@\x82\xde\x88\xef\x1c\xe6\x06@\x82\xde\x88\xef\x1c\xe6\x06@\x01\xa0\xbb\x81h\xbf\x04@S\xb9\x1c\xadhz\x13@\x90\xe6\x03|\xb2\x92\xff?\x90\xe6\x03|\xb2\x92\xff?\x90\xe6\x03|\xb2\x92\xff?\xfd\x80L\x1f\xdf<\x0c@\xfb\x80L\x1f\xdf<\x0c@\xfb\x80L\x1f\xdf<\x0c@\xd2\tTx\xbd\xd5\x1f@\xc0\x175\xcf\x99\xa6\xed?\x82\xde\x88\xef\x1c\xe6\x06@\x82\xde\x88\xef\x1c\xe6\x06@'#\x0e\xfb\x02\x08\x00@'#\x0e\xfb\x02\x08\x00@\xd1U\x82_dV\xdd?'#\x0e\xfb\x02\x08\x00@\x82\xde\x88\xef\x1c\xe6\x06@\x82\xde\x88\xef\x1c\xe6\x06@\x82\xde\x88\xef\x1c\xe6\x06@\x82\xde\x88\xef\x1c\xe6\x06@\xd2\tTx\xbd\xd5\x1f@\x82\xde\x88\xef\x1c\xe6\x06@\x82\xde\x88\xef\x1c\xe6\x06@\x90\xe6\x03|\xb2\x92\xff?\x90\xe6\x03|\xb2\x92\xff?\x90\xe6\x03|\xb2\x92\xff?\xab\xfew\x1c\xed\x10\x05@\xfa\xdc\xb0u\xbe7\x02@\xfb\x1e\xde.\x08v\xb5?\xab\xfew\x1c\xed\x10\x05@V`rQ\xe8\xe5\xfe?V`rQ\xe8\xe5\xfe?\x82\xde\x88\xef\x1c\xe6\x06@\x82\xde\x88\xef\x1c\xe6\x06@\x84z\xc3\x1fb\x84#@~\x88\xce\xa2\xe47\xf7\xbf\x82\xde\x88\xef\x1c\xe6\x06@\x82\xde\x88\xef\x1c\xe6\x06@'#\x0e\xfb\x02\x08\x00@'#\x0e\xfb\x02\x08\x00@'#\x0e\xfb\x02\x08\x00@\x82\xde\x88\xef\x1c\xe6\x06@\x82\xde\x88\xef\x1c\xe6\x06@6$\xd2\xaa\xc0\x17\xf5?\xcevR\xc2\x87\x04\x03@\xcevR\xc2\x87\x04\x03@\xd2\tTx\xbd\xd5\x1f@\x82\xde\x88\xef\x1c\xe6\x06@\x82\xde\x88\xef\x1c\xe6\x06@\x99z\xa3\xb2v]\x04@\x99z\xa3\xb2v]\x04@\x99z\xa3\xb2v]\x04@\x08(\xa2qb\xa6\x16@\xb1\x98\xb1\xd3\xac\t\x05@\x82\xde\x88\xef\x1c\xe6\x06@\x82\xde\x88\xef\x1c\xe6\x06@\x01\xa0\xbb\x81h\xbf\x04@S\xb9\x1c\xadhz\x13@\x82\xde\x88\xef\x1c\xe6\x06@\x82\xde\x88\xef\x1c\xe6\x06@\x82\xde\x88\xef\x1c\xe6\x06@\x82\xde\x88\xef\x1c\xe6\x06@\x82\xde\x88\xef\x1c\xe6\x06@\x82\xde\x88\xef\x1c\xe6\x06@\x99z\xa3\xb2v]\x04@\x99z\xa3\xb2v]\x04@\x99z\xa3\xb2v]\x04@\x82\xde\x88\xef\x1c\xe6\x06@\x82\xde\x88\xef\x1c\xe6\x06@\xd2\tTx\xbd\xd5\x1f@\x82\xde\x88\xef\x1c\xe6\x06@\x82\xde\x88\xef\x1c\xe6\x06@s)\x84W\xfd\x99\x1e@i\xe7\x9a\xb3:\xa7\xf0?+\x87U\xccI \x04@+\x87U\xccI \x04@\xfc\x80L\x1f\xdf<\x0c@\xfc\x80L\x1f\xdf<\x0c@\xfc\x80L\x1f\xdf<\x0c@\xfc\x80L\x1f\xdf<\x0c@\xfc\x80L\x1f\xdf<\x0c@\xfc\x80L\x1f\xdf<\x0c@\xfc\x80L\x1f\xdf<\x0c@\xfc\x80L\x1f\xdf<\x0c@\xfc\x80L\x1f\xdf<\x0c@\xfc\x80L\x1f\xdf<\x0c@\xfc\x80L\x1f\xdf<\x0c@\xfc\x80L\x1f\xdf<\x0c@\xfc\x80L\x1f\xdf<\x0c@\xfc\x80L\x1f\xdf<\x0c@\xfc\x80L\x1f\xdf<\x0c@\xfc\x80L\x1f\xdf<\x0c@\xfc\x80L\x1f\xdf<\x0c@\xfc\x80L\x1f\xdf<\x0c@\xfc\x80L\x1f\xdf<\x0c@\xfc\x80L\x1f\xdf<\x0c@\xfc\x80L\x1f\xdf<\x0c@\xfc\x80L\x1f\xdf<\x0c@\xfc\x80L\x1f\xdf<\x0c@\xfc\x80L\x1f\xdf<\x0c@\xfc\x80L\x1f\xdf<\x0c@\xfc\x80L\x1f\xdf<\x0c@\xfc\x80L\x1f\xdf<\x0c@\xfc\x80L\x1f\xdf<\x0c@\xfc\x80L\x1f\xdf<\x0c@\xfc\x80L\x1f\xdf<\x0c@\xfc\x80L\x1f\xdf<\x0c@\xfc\x80L\x1f\xdf<\x0c@\xfc\x80L\x1f\xdf<\x0c@\xfc\x80L\x1f\xdf<\x0c@\xfc\x80L\x1f\xdf<\x0c@\xfc\x80L\x1f\xdf<\x0c@\xfc\x80L\x1f\xdf<\x0c@\xfc\x80L\x1f\xdf<\x0c@\xfc\x80L\x1f\xdf<\x0c@\xfc\x80L\x1f\xdf<\x0c@\xfc\x80L\x1f\xdf<\x0c@\xfc\x80L\x1f\xdf<\x0c@\xfc\x80L\x1f\xdf<\x0c@\xfc\x80L\x1f\xdf<\x0c@\xfc\x80L\x1f\xdf<\x0c@\xfc\x80L\x1f\xdf<\x0c@\xfc\x80L\x1f\xdf<\x0c@\xfc\x80L\x1f\xdf<\x0c@\xfc\x80L\x1f\xdf<\x0c@\xfc\x80L\x1f\xdf<\x0c@\xfc\x80L\x1f\xdf<\x0c@\xfc\x80L\x1f\xdf<\x0c@\xfc\x80L\x1f\xdf<\x0c@\xfc\x80L\x1f\xdf<\x0c@\xfc\x80L\x1f\xdf<\x0c@\xfc\x80L\x1f\xdf<\x0c@\xfc\x80L\x1f\xdf<\x0c@\xfc\x80L\x1f\xdf<\x0c@\xfc\x80L\x1f\xdf<\x0c@\xfc\x80L\x1f\xdf<\x0c@\xfc\x80L\x1f\xdf<\x0c@\xfc\x80L\x1f\xdf<\x0c@\xfc\x80L\x1f\xdf<\x0c@\xfc\x80L\x1f\xdf<\x0c@\xfc\x80L\x1f\xdf<\x0c@\xfc\x80L\x1f\xdf<\x0c@\xfc\x80L\x1f\xdf<\x0c@\xfc\x80L\x1f\xdf<\x0c@\xfc\x80L\x1f\xdf<\x0c@\xfc\x80L\x1f\xdf<\x0c@\xfc\x80L\x1f\xdf<\x0c@\xfc\x80L\x1f\xdf<\x0c@\xfc\x80L\x1f\xdf<\x0c@\xfc\x80L\x1f\xdf<\x0c@\xfc\x80L\x1f\xdf<\x0c@\xfc\x80L\x1f\xdf<\x0c@\xfc\x80L\x1f\xdf<\x0c@\xfc\x80L\x1f\xdf<\x0c@\xfc\x80L\x1f\xdf<\x0c@\xfc\x80L\x1f\xdf<\x0c@\xde\x80L\x1f\xdf<\x0c@\xde\x80L\x1f\xdf<\x0c@?\xef\xfd4\x1e\x88\x05@?\xef\xfd4\x1e\x88\x05@\x10\xe2K\x17\x9d*\xf0?\x86\x9a>\xff\xa2T\xf8??\xef\xfd4\x1e\x88\x05@?\xef\xfd4\x1e\x88\x05@?\xef\xfd4\x1e\x88\x05@?\xef\xfd4\x1e\x88\x05@\x06\xa0\xbb\x81h\xbf\x04@D\xb9\x1c\xadhz\x13@?\xef\xfd4\x1e\x88\x05@?\xef\xfd4\x1e\x88\x05@\xe9$\xc4?\xa9\xcd\x01@\xe9$\xc4?\xa9\xcd\x01@S\xbe}-\xc8 \xfc??\xef\xfd4\x1e\x88\x05@?\xef\xfd4\x1e\x88\x05@\xde\x80L\x1f\xdf<\x0c@\xde\x80L\x1f\xdf<\x0c@?\xef\xfd4\x1e\x88\x05@?\xef\xfd4\x1e\x88\x05@\xe9$\xc4?\xa9\xcd\x01@\xe9$\xc4?\xa9\xcd\x01@\xe1\x80L\x1f\xdf<\x0c@\xdc\x80L\x1f\xdf<\x0c@\xe9$\xc4?\xa9\xcd\x01@\xe9$\xc4?\xa9\xcd\x01@\xdc\x80L\x1f\xdf<\x0c@\xc3\xdb\x85r5\x98\t@\xc3\xdb\x85r5\x98\t@\xedD\xdb,\xc8\x05\xdd\xbf?\xef\xfd4\x1e\x88\x05@?\xef\xfd4\x1e\x88\x05@?\xef\xfd4\x1e\x88\x05@?\xef\xfd4\x1e\x88\x05@\xe9$\xc4?\xa9\xcd\x01@\xe9$\xc4?\xa9\xcd\x01@\xe1\x80L\x1f\xdf<\x0c@\xdc\x80L\x1f\xdf<\x0c@\xdc\x80L\x1f\xdf<\x0c@?\xef\xfd4\x1e\x88\x05@?\xef\xfd4\x1e\x88\x05@\xe1\x80L\x1f\xdf<\x0c@\xdc\x80L\x1f\xdf<\x0c@\xe9$\xc4?\xa9\xcd\x01@\xe9$\xc4?\xa9\xcd\x01@\xdc\x80L\x1f\xdf<\x0c@\xfc\x9f\xbb\x81h\xbf\x04@I\xb9\x1c\xadhz\x13@\xe9$\xc4?\xa9\xcd\x01@\xe9$\xc4?\xa9\xcd\x01@\xe9$\xc4?\xa9\xcd\x01@\xe9$\xc4?\xa9\xcd\x01@?\xef\xfd4\x1e\x88\x05@?\xef\xfd4\x1e\x88\x05@?\xef\xfd4\x1e\x88\x05@?\xef\xfd4\x1e\x88\x05@\x06\xa0\xbb\x81h\xbf\x04@D\xb9\x1c\xadhz\x13@\xe9$\xc4?\xa9\xcd\x01@\xe9$\xc4?\xa9\xcd\x01@\xc3\xdb\x85r5\x98\t@\xc3\xdb\x85r5\x98\t@\n\xb5\xa7c\xe3^\x0c@\n\xb5\xa7c\xe3^\x0c@\x85\xdd\xa39:L\xef\xbf\x1c\xe5\xe4\x91k\xe5\x0f@\x1c\xe5\xe4\x91k\xe5\x0f@\xfc\x9f\xbb\x81h\xbf\x04@I\xb9\x1c\xadhz\x13@?\xef\xfd4\x1e\x88\x05@?\xef\xfd4\x1e\x88\x05@\xe9$\xc4?\xa9\xcd\x01@\xe9$\xc4?\xa9\xcd\x01@\xde\x80L\x1f\xdf<\x0c@\xde\x80L\x1f\xdf<\x0c@\xb6]p\xc6\xe1\xbc\r@\xa5\xefT\x97CF\x07@\xc78\xf9\xdd\x03|\x0b@\xf9s\xad\xec.:\x06@\xa6\xc2G\xff\xbbO\x0e@\xe0\xa6\x8a\x81\xe9\x11\xfe?NGr\xbc\xf1\xbb\xe3\xbf"
p1197
tp1198
bsb.